(dp0
V\u8000
p1
F2.2197357387528123e-06
sV\u6302
p2
F1.502590346232673e-05
sV\u6000
p3
F1.2635418820592933e-05
sV\u6d89
p4
F1.195242320866899e-06
sV\u8c08
p5
F4.780969283467596e-06
sV\u908b
p6
F1.195242320866899e-06
sV\u968f
p7
F2.8173568991862618e-05
sV\u8302
p8
F1.7074890298098557e-06
sV\u6297
p9
F1.3659912238478846e-06
sV\u8116
p10
F1.0586431984821105e-05
sV\u6599
p11
F1.007418527587815e-05
sV\u6d1e
p12
F1.9806872745794328e-05
sV\u9020
p13
F8.025198440106322e-06
sV\u7624
p14
F3.4149780596197115e-07
sV\u7edd
p15
F1.2293921014630961e-05
sV\u822c
p16
F1.2635418820592933e-05
sV\u86af
p17
F1.7074890298098557e-07
sV\u6f5c
p18
F8.537445149049278e-07
sV\u6cb3
p19
F1.4855154559345744e-05
sV\u6b32
p20
F4.268722574524639e-06
sV\u4fb5
p21
F5.122467089429567e-07
sV\u4e34
p22
F1.1440176499726034e-05
sV\u7136
p23
F0.00016272370454087926
sV\u5438
p24
F3.0734802536577403e-06
sV\u573a
p25
F1.195242320866899e-05
sV\u5bbd
p26
F4.951718186448582e-06
sV\u7a3c
p27
F5.122467089429567e-07
sV\u7ebf
p28
F1.53674012682887e-05
sV\u6342
p29
F1.7074890298098557e-07
sV\u73cd
p30
F8.708194052030264e-06
sV\u724c
p31
F1.8782379327908412e-06
sV\u76cf
p32
F2.902731350676755e-06
sV\u79d1
p33
F2.902731350676755e-06
sV\u7b52
p34
F3.4149780596197115e-07
sV\u82d7
p35
F1.0244934178859135e-06
sV\u6458
p36
F9.22044076097322e-06
sV\u8bdd
p37
F7.393427499076676e-05
sV\u8d5e
p38
F4.097973671543654e-06
sV\u51e1
p39
F4.439471477505625e-06
sV\u74e3
p40
F1.7074890298098557e-07
sV\u77e5
p41
F8.87894295501125e-05
sV\u9664
p42
F1.502590346232673e-05
sV\u60eb
p43
F1.0244934178859135e-06
sV\u7f6a
p44
F7.854449537125336e-06
sV\u63ed
p45
F4.268722574524639e-06
sV\u626c
p46
F3.585726962600697e-06
sV\u8870
p47
F3.4149780596197115e-07
sV\u6cf3
p48
F5.122467089429567e-07
sV\u5176
p49
F3.739400975283584e-05
sV\u95f9
p50
F7.0007050222204085e-06
sV\u5478
p51
F1.7074890298098557e-07
sV\u9a7c
p52
F5.122467089429567e-07
sV\u7eff
p53
F7.854449537125336e-06
sV\u4e14
p54
F4.8834186252561876e-05
sV\u6101
p55
F6.1469605073154806e-06
sV\u8403
p56
F1.7074890298098557e-07
sV\u6382
p57
F1.0244934178859135e-06
sV\u8986
p58
F1.0244934178859135e-06
sV\u300b
p59
F1.8782379327908412e-06
sV\u530d
p60
F1.7074890298098557e-07
sV\u776c
p61
F8.537445149049278e-07
sV\u5599
p62
F3.4149780596197115e-07
sV\u7f15
p63
F3.4149780596197115e-07
sV\u5e94
p64
F4.9687930767466803e-05
sV\u679a
p65
F3.0734802536577403e-06
sV\u53a2
p66
F1.7074890298098557e-07
sV\u5047
p67
F8.708194052030264e-06
sV\u5d29
p68
F5.122467089429567e-07
sV\u5faa
p69
F1.0244934178859135e-06
sV\u62ac
p70
F1.0586431984821105e-05
sV\u662f
p71
F0.0007968851302122597
sV\u8bb2
p72
F1.7245639201079543e-05
sV\u5237
p73
F1.195242320866899e-06
sV\u9539
p74
F1.0244934178859135e-06
sV\u54b8
p75
F1.7074890298098557e-07
sV\u8d1e
p76
F6.829956119239423e-07
sV\u9abc
p77
F1.7074890298098557e-07
sV\u5fc5
p78
F2.8173568991862618e-05
sV\u80c0
p79
F6.829956119239423e-07
sV\u6a47
p80
F1.7074890298098557e-07
sV\u89c6
p81
F4.951718186448582e-06
sV\u4fca
p82
F5.293215992410553e-06
sV\u5951
p83
F3.4149780596197115e-07
sV\u5bd2
p84
F2.902731350676755e-06
sV\u7f55
p85
F5.122467089429567e-07
sV\u5178
p86
F2.2197357387528123e-06
sV\u6559
p87
F3.6369516334949924e-05
sV\u4e5f
p88
F0.00022982802341240657
sV\u56e4
p89
F1.7074890298098557e-07
sV\u5ce8
p90
F3.4149780596197115e-07
sV\u62ec
p91
F1.0244934178859135e-06
sV\u666f
p92
F3.927224768562668e-06
sV\u65ee
p93
F1.7074890298098557e-07
sV\u6ef4
p94
F7.0007050222204085e-06
sV\u51f6
p95
F2.731982447695769e-06
sV\u94f8
p96
F5.122467089429567e-07
sV\u987b
p97
F2.424634422329995e-05
sV\u57fa
p98
F1.5367401268288701e-06
sV\u5b7d
p99
F1.3659912238478846e-06
sV\u5e7f
p100
F2.2197357387528123e-06
sV\u5dfe
p101
F3.0734802536577403e-06
sV\u6c89
p102
F1.7416388104060527e-05
sV\u918b
p103
F1.3659912238478846e-06
sV\u4e0a
p104
F0.0006353566679922474
sV\u540e
p105
F0.0003520842379467923
sV\u7891
p106
F1.195242320866899e-06
sV\u9910
p107
F1.2123172111649975e-05
sV\u6682
p108
F1.195242320866899e-06
sV\u5e95
p109
F2.1343612872623198e-05
sV\u6016
p110
F5.122467089429567e-07
sV\u8499
p111
F2.902731350676755e-06
sV\u699b
p112
F4.097973671543654e-06
sV\u8f9f
p113
F1.7074890298098557e-07
sV\u5ca9
p114
F3.4149780596197114e-06
sV\u832c
p115
F1.7074890298098557e-07
sV\u67af
p116
F2.731982447695769e-06
sV\u60dc
p117
F4.439471477505625e-06
sV\u88b1
p118
F1.3659912238478846e-06
sV\u8db3
p119
F1.7587137007041515e-05
sV\u4f34
p120
F9.391189663954207e-06
sV\u73b7
p121
F1.7074890298098557e-07
sV\u7538
p122
F1.0244934178859135e-06
sV\u79bb
p123
F3.5003525111102045e-05
sV\u9b3c
p124
F2.697832667099572e-05
sV\u6e34
p125
F6.829956119239423e-06
sV\u80c1
p126
F2.048986835771827e-06
sV\u6cc9
p127
F4.951718186448582e-06
sV\u51cb
p128
F1.7074890298098557e-07
sV\u72cd
p129
F3.4149780596197115e-07
sV\u7ed5
p130
F4.439471477505625e-06
sV\u7f54
p131
F3.4149780596197115e-07
sV\u69db
p132
F1.8782379327908412e-06
sV\u665a
p133
F5.9420618237382977e-05
sV\u8fdf
p134
F2.731982447695769e-06
sV\u8c11
p135
F3.4149780596197115e-07
sV\u75e3
p136
F1.7074890298098557e-07
sV\u7262
p137
F1.1269427596745048e-05
sV\u729f
p138
F1.7074890298098557e-07
sV\u62ed
p139
F1.7074890298098557e-07
sV\u67ef
p140
F2.731982447695769e-06
sV\u8df3
p141
F5.959136714036397e-05
sV\u8f74
p142
F1.7074890298098557e-06
sV\u53f7
p143
F8.195947343087308e-06
sV\u5076
p144
F1.0244934178859135e-06
sV\u5578
p145
F1.0244934178859135e-06
sV\u79fb
p146
F2.390484641733798e-06
sV\u5fff
p147
F3.4149780596197115e-07
sV\u8001
p148
F0.00018509181083138835
sV\u8180
p149
F6.488458313277452e-06
sV\u8282
p150
F3.244229156638726e-06
sV\u2605
p151
F3.43205294991781e-05
sV\u8717
p152
F6.829956119239423e-07
sV\u6886
p153
F1.7074890298098557e-06
sV\u6d88
p154
F1.53674012682887e-05
sV\u538c
p155
F2.5612335447147834e-06
sV\u948e
p156
F5.122467089429567e-07
sV\u7a92
p157
F1.7074890298098557e-07
sV\u5e15
p158
F7.171453925201394e-06
sV\u7f94
p159
F3.244229156638726e-06
sV\u8096
p160
F5.122467089429567e-07
sV\u891b
p161
F6.829956119239423e-07
sV\u4f1f
p162
F8.537445149049278e-07
sV\u71a0
p163
F6.829956119239423e-07
sV\u9523
p164
F5.122467089429567e-07
sV\u4e1d
p165
F1.0927929790783077e-05
sV\u7eaa
p166
F2.048986835771827e-06
sV\u63ac
p167
F1.7074890298098557e-07
sV\u672f
p168
F4.780969283467596e-06
sV\u64ae
p169
F3.4149780596197115e-07
sV\u5439
p170
F2.3734097514356995e-05
sV\u7a3d
p171
F8.537445149049278e-07
sV\u7cbe
p172
F1.2635418820592933e-05
sV\u62c2
p173
F1.195242320866899e-06
sV\u67c4
p174
F2.2197357387528123e-06
sV\u6b47
p175
F4.439471477505625e-06
sV\u6c49
p176
F7.666625743846252e-05
sV\u53cd
p177
F1.2976916626554904e-05
sV\u514b
p178
F1.2635418820592933e-05
sV\u4eca
p179
F2.083136616368024e-05
sV\u524d
p180
F0.00017450537884656725
sV\u53cc
p181
F2.1002115066661226e-05
sV\u574f
p182
F2.1855859581566153e-05
sV\u54ce
p183
F1.4172158947421803e-05
sV\u5851
p184
F1.7074890298098557e-07
sV\u59d0
p185
F3.3466784984273175e-05
sV\u5e55
p186
F2.2197357387528123e-06
sV\u7fd4
p187
F2.048986835771827e-06
sV\u80d6
p188
F3.927224768562668e-06
sV\u51e0
p189
F3.414978059619711e-05
sV\u9563
p190
F1.7074890298098557e-07
sV\u5de8
p191
F3.6028018528987956e-05
sV\u7eea
p192
F1.3659912238478846e-06
sV\u626d
p193
F3.244229156638726e-06
sV\u676f
p194
F1.4172158947421803e-05
sV\u5377
p195
F7.68370063414435e-06
sV\u56fa
p196
F1.8782379327908412e-06
sV\u5bfc
p197
F2.048986835771827e-06
sV\u9f7f
p198
F1.7074890298098557e-06
sV\u8200
p199
F1.8782379327908412e-06
sV\u8404
p200
F5.80546270135351e-06
sV\u8f89
p201
F2.5612335447147834e-06
sV\u4e08
p202
F2.749057337993868e-05
sV\u518d
p203
F0.00011491401170620329
sV\u500c
p204
F1.7074890298098557e-07
sV\u5e93
p205
F2.731982447695769e-06
sV\u7802
p206
F5.122467089429567e-07
sV\u5c14
p207
F3.1417798148501346e-05
sV\u6316
p208
F6.488458313277452e-06
sV\u6c9f
p209
F3.7564758655816825e-06
sV\u56a3
p210
F1.7074890298098557e-07
sV\u78a7
p211
F3.4149780596197115e-07
sV\u7b26
p212
F1.195242320866899e-06
sV\u5bdd
p213
F6.829956119239423e-07
sV\u62ab
p214
F7.512951731163365e-06
sV\u5206
p215
F5.105392199131469e-05
sV\u4eb2
p216
F0.00014581956314576168
sV\u6c34
p217
F8.947242516203644e-05
sV\u55d2
p218
F3.4149780596197115e-07
sV\u7708
p219
F3.4149780596197115e-07
sV\u7638
p220
F1.8782379327908412e-06
sV\u79bd
p221
F8.537445149049278e-07
sV\u9f3e
p222
F2.902731350676755e-06
sV\u6240
p223
F9.579013457233291e-05
sV\u65c5
p224
F1.4855154559345744e-05
sV\u900a
p225
F3.4149780596197115e-07
sV\u4e48
p226
F0.00028583366359016983
sV\u6d4a
p227
F3.4149780596197115e-07
sV\u91cd
p228
F3.005180692465346e-05
sV\u704c
p229
F5.634713798372524e-06
sV\u7ed3
p230
F3.517427401408303e-05
sV\u5162
p231
F1.0244934178859135e-06
sV\u55e5
p232
F5.122467089429567e-07
sV\u5b66
p233
F2.424634422329995e-05
sV\u5e3d
p234
F1.8782379327908413e-05
sV\u81ed
p235
F1.0244934178859135e-06
sV\u8bf1
p236
F2.048986835771827e-06
sV\u5012
p237
F3.67110141409119e-05
sV\u8df5
p238
F3.4149780596197115e-07
sV\u57f9
p239
F6.829956119239423e-07
sV\u79fd
p240
F1.7074890298098557e-07
sV\u6301
p241
F8.537445149049278e-06
sV\u6280
p242
F2.902731350676755e-06
sV\u8363
p243
F1.8782379327908412e-06
sV\u6807
p244
F1.7074890298098557e-06
sV\u4f09
p245
F1.7074890298098557e-07
sV\u4e88
p246
F1.195242320866899e-06
sV\u8d8a
p247
F2.8685815700805577e-05
sV\u778e
p248
F1.8782379327908412e-06
sV\u7b11
p249
F2.3051101902433052e-05
sV\u5992
p250
F4.097973671543654e-06
sV\u5c94
p251
F3.4149780596197115e-07
sV\u8017
p252
F1.3659912238478846e-06
sV\u889c
p253
F1.7074890298098557e-06
sV\u8f9e
p254
F1.8782379327908412e-06
sV\u52a0
p255
F1.929462603685137e-05
sV\u51a2
p256
F5.122467089429567e-07
sV\u7525
p257
F3.4149780596197115e-07
sV\u7827
p258
F1.3659912238478846e-06
sV\u7f29
p259
F2.902731350676755e-06
sV\u60ac
p260
F1.7074890298098557e-06
sV\u8d35
p261
F9.049691857992235e-06
sV\u9739
p262
F1.7074890298098557e-07
sV\u7a3b
p263
F3.244229156638726e-06
sV\u5c3f
p264
F1.7074890298098557e-07
sV\u6643
p265
F5.80546270135351e-06
sV\u61c2
p266
F5.293215992410553e-06
sV\u6545
p267
F7.512951731163365e-06
sV\u84c4
p268
F1.7074890298098557e-07
sV\u8bc6
p269
F1.007418527587815e-05
sV\u914d
p270
F7.854449537125336e-06
sV\u4fa3
p271
F6.829956119239423e-07
sV\u57ce
p272
F4.678519941679005e-05
sV\u7b51
p273
F1.5367401268288701e-06
sV\u79d2
p274
F6.829956119239423e-07
sV\u6c5f
p275
F3.4149780596197115e-07
sV\u8fde
p276
F3.380828279023514e-05
sV\u5361
p277
F4.780969283467596e-06
sV\u72e0
p278
F1.2976916626554904e-05
sV\u5565
p279
F6.659207216258437e-06
sV\u7f69
p280
F2.2197357387528123e-06
sV\u626b
p281
F1.1098678693764063e-05
sV\u60ec
p282
F3.4149780596197115e-07
sV7
p283
F6.829956119239423e-07
sV\u4e73
p284
F8.537445149049278e-07
sV\u5077
p285
F2.8002820088881634e-05
sV\u53f6
p286
F1.161092540270702e-05
sV\u7779
p287
F1.195242320866899e-06
sV\u76f8
p288
F3.244229156638726e-05
sV\u9a7b
p289
F3.4149780596197115e-07
sV\u597d
p290
F0.00025629410337445934
sV\u8783
p291
F1.7074890298098557e-06
sV\u6002
p292
F3.4149780596197115e-07
sV\u4e89
p293
F5.122467089429567e-06
sV\u68ad
p294
F1.3659912238478846e-06
sV\u738b
p295
F0.00035720670503622184
sV\u8c0a
p296
F3.4149780596197115e-07
sV\u508d
p297
F5.976211604334495e-06
sV\u5403
p298
F0.0001434290785040279
sV\u558f
p299
F1.3659912238478846e-06
sV\u560e
p300
F4.780969283467596e-06
sV\u9a91
p301
F2.6636828865033748e-05
sV\u6216
p302
F1.1098678693764063e-05
sV\u8718
p303
F3.4149780596197115e-07
sV\u6d9f
p304
F6.829956119239423e-07
sV\u52a1
p305
F6.659207216258437e-06
sV\u5320
p306
F2.4075595320318967e-05
sV\u57a3
p307
F3.4149780596197115e-07
sV\u9022
p308
F5.122467089429567e-07
sV\u94a5
p309
F9.561938566935192e-06
sV\u5524
p310
F5.293215992410553e-06
sV\u83ab
p311
F1.8782379327908412e-06
sV\u5986
p312
F1.195242320866899e-06
sV\u65af
p313
F7.598326182653858e-05
sV\u8d34
p314
F1.0244934178859135e-06
sV\u51b7
p315
F8.537445149049278e-06
sV\u5236
p316
F8.025198440106322e-06
sV\u9738
p317
F1.7074890298098557e-07
sV\u793c
p318
F3.7906256461778795e-05
sV\u9f8a
p319
F1.7074890298098557e-07
sV\u64c5
p320
F1.7074890298098557e-07
sV\u53cb
p321
F1.8611630424927426e-05
sV\u714c
p322
F1.0244934178859135e-06
sV\u564e
p323
F8.537445149049278e-07
sV\u5b50
p324
F0.0007104861853038809
sV\u7cd5
p325
F4.780969283467596e-06
sV\u66d9
p326
F1.7074890298098557e-07
sV\u6bdb
p327
F2.424634422329995e-05
sV\u53bb
p328
F0.0004599975446307751
sV\u8ddf
p329
F5.3785904439010455e-05
sV\u4e5e
p330
F6.829956119239423e-06
sV\u72e1
p331
F2.5612335447147834e-06
sV\u5360
p332
F3.0734802536577403e-06
sV\u9062
p333
F1.195242320866899e-06
sV\u54e5
p334
F6.642132325960339e-05
sV\u5564
p335
F6.829956119239423e-06
sV\u7ee9
p336
F1.7074890298098557e-07
sV\u8e8f
p337
F3.4149780596197115e-07
sV\u8c13
p338
F5.122467089429567e-07
sV\u65ef
p339
F1.7074890298098557e-07
sV\u666e
p340
F5.976211604334495e-06
sV\u6d74
p341
F8.537445149049278e-07
sV\u76f9
p342
F8.537445149049278e-07
sV\u5f15
p343
F5.293215992410553e-06
sV\u5bfb
p344
F1.6050396880212644e-05
sV\u997c
p345
F3.4149780596197114e-06
sV\u4e94
p346
F9.903436372897164e-06
sV\u6380
p347
F2.2197357387528123e-06
sV\u6405
p348
F2.048986835771827e-06
sV\u8584
p349
F1.7074890298098557e-06
sV\u4e09
p350
F0.00010603506875119205
sV\u8f88
p351
F3.927224768562668e-06
sV\u500d
p352
F1.3659912238478846e-06
sV\u568e
p353
F2.048986835771827e-06
sV\u5f13
p354
F3.4149780596197114e-06
sV\u6296
p355
F8.708194052030264e-06
sV\u699c
p356
F1.7074890298098557e-07
sV\u8d1f
p357
F4.951718186448582e-06
sV\u5723
p358
F2.5612335447147837e-05
sV\u75a4
p359
F5.122467089429567e-07
sV\u5927
p360
F0.0002761009761202537
sV\u832b
p361
F1.8782379327908412e-06
sV\u7caa
p362
F5.122467089429567e-07
sV-
p363
F2.1855859581566153e-05
sV\u652f
p364
F5.122467089429567e-06
sV\u6a31
p365
F1.0244934178859135e-06
sV\u8bb0
p366
F1.3830661141459831e-05
sV\u8db4
p367
F3.244229156638726e-06
sV\u72b6
p368
F2.731982447695769e-06
sV\u6241
p369
F6.829956119239423e-07
sV\u6743
p370
F1.3659912238478846e-06
sV\u644a
p371
F1.0244934178859135e-06
sV\u60a0
p372
F4.268722574524639e-06
sV\u4e49
p373
F3.4149780596197114e-06
sV\u8fc8
p374
F3.0734802536577403e-06
sV\u6cca
p375
F1.3659912238478846e-06
sV\u904d
p376
F1.161092540270702e-05
sV\u91cc
p377
F0.00042277428378092026
sV\u754f
p378
F2.731982447695769e-06
sV\u76ce
p379
F3.4149780596197115e-07
sV\u5bd0
p380
F1.7074890298098557e-07
sV\u5f53
p381
F0.00014018484934738914
sV\u5c55
p382
F3.7564758655816825e-06
sV\u9c81
p383
F1.8782379327908412e-06
sV\u62d6
p384
F1.2635418820592933e-05
sV\u7261
p385
F2.5612335447147834e-06
sV\u73e0
p386
F8.195947343087308e-06
sV\u7763
p387
F1.5367401268288701e-06
sV\u55e4
p388
F1.7074890298098557e-07
sV\u836b
p389
F5.122467089429567e-07
sV\u606d
p390
F3.4149780596197115e-07
sV\u86ee
p391
F8.537445149049278e-07
sV\u6a71
p392
F2.902731350676755e-06
sV\u4f73
p393
F2.731982447695769e-06
sV\u5177
p394
F3.7564758655816825e-06
sV\u5679
p395
F5.122467089429567e-07
sV\u94fa
p396
F9.561938566935192e-06
sV\u987d
p397
F1.195242320866899e-06
sV\u8083
p398
F1.7074890298098557e-07
sV\u8702
p399
F9.049691857992235e-06
sV\u7600
p400
F1.7074890298098557e-07
sV\u6808
p401
F8.537445149049278e-07
sV\u978d
p402
F4.439471477505625e-06
sV\u5893
p403
F6.659207216258437e-06
sV\uff12
p404
F1.7074890298098557e-07
sV\u6697
p405
F1.1781674305688004e-05
sV\u4f9d
p406
F4.951718186448582e-06
sV\u4e1c
p407
F7.137304144605196e-05
sV\u5420
p408
F8.537445149049278e-07
sV\u90a3
p409
F0.0004401906718849808
sV\u5224
p410
F5.80546270135351e-06
sV\u7ea7
p411
F1.3659912238478846e-06
sV\u59a9
p412
F1.7074890298098557e-07
sV\u82af
p413
F6.829956119239423e-07
sV\u68b3
p414
F6.488458313277452e-06
sV\u6bb5
p415
F1.2806167723573918e-05
sV\u56b7
p416
F8.195947343087308e-06
sV\u9038
p417
F1.7074890298098557e-07
sV\u533a
p418
F1.0244934178859135e-06
sV\u7fbd
p419
F9.732687469916178e-06
sV\u7abf
p420
F1.7074890298098557e-07
sV\u65c1
p421
F3.4832776208121054e-05
sV\u80c3
p422
F1.7074890298098557e-06
sV\u6742
p423
F1.7074890298098557e-06
sV\u7237
p424
F5.463964895391538e-06
sV\u4ec7
p425
F1.0244934178859135e-06
sV\u6d46
p426
F1.3659912238478846e-06
sV\u89c9
p427
F4.8663437349580886e-05
sV\u6848
p428
F1.8782379327908412e-06
sV\u964c
p429
F9.391189663954207e-06
sV\u714e
p430
F1.195242320866899e-06
sV\u5f52
p431
F9.391189663954207e-06
sV\u6cdb
p432
F6.829956119239423e-07
sV\u4fdd
p433
F1.5879647977231657e-05
sV\u695e
p434
F3.4149780596197115e-07
sV\u55e1
p435
F2.048986835771827e-06
sV\u9762
p436
F0.0001871407976671602
sV\u53e5
p437
F8.366696246068294e-06
sV\u7ee7
p438
F3.893074987966471e-05
sV\u4e10
p439
F3.0734802536577403e-06
sV\u79e9
p440
F1.7074890298098557e-07
sV\u7897
p441
F6.1469605073154806e-06
sV\u62ef
p442
F3.4149780596197115e-07
sV\u816e
p443
F3.4149780596197115e-07
sV\u6df1
p444
F2.236810629050911e-05
sV\u88f3
p445
F2.2197357387528123e-06
sV\u96f7
p446
F1.1781674305688004e-05
sV\u9576
p447
F1.5367401268288701e-06
sV\u7cfb
p448
F6.317709410296466e-06
sV\u5ffd
p449
F5.634713798372524e-06
sV\u6beb
p450
F1.4513656753383774e-05
sV\u7aff
p451
F8.537445149049278e-07
sV\u8003
p452
F5.634713798372524e-06
sV\u8305
p453
F6.829956119239423e-07
sV\u6284
p454
F3.4149780596197115e-07
sV\u4e07
p455
F2.4075595320318967e-05
sV\u970d
p456
F2.2197357387528123e-06
sV\u775b
p457
F2.117286396964221e-05
sV\u5f92
p458
F8.708194052030264e-06
sV\u8098
p459
F1.5367401268288701e-06
sV\u6c1b
p460
F3.4149780596197115e-07
sV\u6e9c
p461
F1.0244934178859134e-05
sV\u9521
p462
F3.4149780596197115e-07
sV\u62f1
p463
F1.7074890298098557e-07
sV\u811a
p464
F3.363753388725416e-05
sV\u5929
p465
F0.00023819471965847488
sV\u58a8
p466
F6.829956119239423e-07
sV\u59c6
p467
F9.049691857992235e-06
sV\u77f3
p468
F4.4053216969094275e-05
sV\u8d31
p469
F1.7074890298098557e-07
sV\u589f
p470
F6.829956119239423e-07
sV\u70b8
p471
F6.829956119239423e-07
sV\u604b
p472
F6.829956119239423e-07
sV\u6574
p473
F4.1150485618417526e-05
sV\u6345
p474
F3.585726962600697e-06
sV\u62c4
p475
F6.829956119239423e-07
sV\u7a76
p476
F3.4149780596197114e-06
sV\u574d
p477
F3.4149780596197115e-07
sV\u96cc
p478
F5.122467089429567e-07
sV\u91ce
p479
F3.824775426774077e-05
sV\u8e66
p480
F7.512951731163365e-06
sV\u5b55
p481
F1.7074890298098557e-07
sV\u5561
p482
F3.4149780596197115e-07
sV\u94e0
p483
F6.829956119239423e-07
sV\u9063
p484
F1.3659912238478846e-06
sV\u52e4
p485
F4.268722574524639e-06
sV\u5de6
p486
F8.025198440106322e-06
sV\u78e8
p487
F3.5515771820045e-05
sV\u826f
p488
F7.0007050222204085e-06
sV\u8bbf
p489
F1.3659912238478846e-06
sV\u9677
p490
F3.0734802536577403e-06
sV\u5179
p491
F1.7074890298098557e-07
sV\u7c7b
p492
F5.463964895391538e-06
sV\u7a7f
p493
F3.927224768562668e-05
sV\u6500
p494
F5.122467089429567e-07
sV\u6602
p495
F1.3659912238478846e-06
sV\u7b14
p496
F4.780969283467596e-06
sV\u6797
p497
F7.854449537125336e-05
sV\u6d9b
p498
F1.5367401268288701e-06
sV\u621a
p499
F1.8782379327908412e-06
sV\u5520
p500
F1.7074890298098557e-07
sV\u672c
p501
F2.749057337993868e-05
sV.
p502
F4.815119064063793e-05
sV\u4e32
p503
F2.2197357387528123e-06
sV\u70b9
p504
F9.066766748290335e-05
sV\u523a
p505
F1.7587137007041515e-05
sV\u7ebd
p506
F3.4149780596197115e-07
sV\u5bbf
p507
F3.7564758655816825e-06
sV\u783e
p508
F1.7074890298098557e-07
sV\u62c5
p509
F1.2293921014630961e-05
sV\u8fc7
p510
F0.00024792740712839106
sV\u8c46
p511
F9.049691857992235e-06
sV\u96cd
p512
F1.7074890298098557e-07
sV\u504e
p513
F6.829956119239423e-07
sV\u59d3
p514
F1.0244934178859135e-06
sV\u7b54
p515
F0.00012430520137015748
sV\u8ddb
p516
F2.5612335447147834e-06
sV\u4f5c
p517
F3.824775426774077e-05
sV\u9706
p518
F1.3659912238478846e-06
sV\u5662
p519
F4.61022038048661e-06
sV\u5fe7
p520
F6.1469605073154806e-06
sV\u5a6a
p521
F2.2197357387528123e-06
sV\u8d70
p522
F0.00025492811215061147
sV\u8e72
p523
F4.097973671543654e-06
sV\u70f9
p524
F1.7074890298098557e-07
sV\u9178
p525
F1.7074890298098557e-06
sV\u727a
p526
F1.7074890298098557e-07
sV\u7efd
p527
F6.829956119239423e-07
sV\u5f7c
p528
F1.7587137007041515e-05
sV\u5bff
p529
F1.8782379327908412e-06
sV\u987e
p530
F6.1469605073154806e-06
sV\u6401
p531
F1.0244934178859135e-06
sV\u8682
p532
F1.7074890298098557e-06
sV\u8205
p533
F1.195242320866899e-06
sV\u950b
p534
F1.7074890298098557e-06
sV\u778c
p535
F5.122467089429567e-07
sV\u708e
p536
F1.7074890298098557e-07
sV\u5c11
p537
F4.4565463678037234e-05
sV\u6717
p538
F4.780969283467596e-06
sV\u8019
p539
F1.0244934178859135e-06
sV\u8198
p540
F5.122467089429567e-07
sV\u629a
p541
F2.2197357387528123e-06
sV\u6e1d
p542
F3.4149780596197115e-07
sV\u8f9c
p543
F2.2197357387528123e-06
sV\u59a8
p544
F8.537445149049278e-07
sV\u852b
p545
F3.4149780596197115e-07
sV\u6b66
p546
F2.902731350676755e-06
sV\u632f
p547
F1.0244934178859135e-06
sV\u80ae
p548
F5.122467089429567e-07
sV\u4e4b
p549
F7.615401072951957e-05
sV\u8eb2
p550
F8.195947343087308e-06
sV\u6a35
p551
F5.976211604334495e-06
sV\u9b54
p552
F4.4565463678037234e-05
sV\u9e3d
p553
F9.561938566935192e-06
sV\u6441
p554
F1.7074890298098557e-07
sV\u6f47
p555
F1.0244934178859135e-06
sV\u89c8
p556
F1.7074890298098557e-07
sV\u964d
p557
F8.537445149049278e-06
sV\u534f
p558
F5.122467089429567e-07
sV\u90ce
p559
F8.87894295501125e-06
sV\u5c51
p560
F2.048986835771827e-06
sV\u7ed2
p561
F2.048986835771827e-06
sV\u6059
p562
F1.195242320866899e-06
sV\u8d5b
p563
F1.2635418820592933e-05
sV\u62da
p564
F3.4149780596197115e-07
sV\u4e5d
p565
F6.317709410296466e-06
sV\u8fdc
p566
F4.046749000649358e-05
sV\u9163
p567
F5.122467089429567e-07
sV\u56e2
p568
F5.80546270135351e-06
sV\u5265
p569
F1.195242320866899e-06
sV\u53e4
p570
F5.976211604334495e-06
sV\u955c
p571
F6.317709410296466e-06
sV\u59e8
p572
F1.0244934178859135e-06
sV\u836f
p573
F7.0007050222204085e-06
sV\u8bf4
p574
F0.0006647254793049768
sV\u74f6
p575
F7.34220282818238e-06
sV\u52fa
p576
F2.5612335447147834e-06
sV\u5e7d
p577
F2.048986835771827e-06
sV\u7ffc
p578
F4.268722574524639e-06
sV\u6781
p579
F1.468440565636476e-05
sV\u6f06
p580
F2.390484641733798e-06
sV\u540c
p581
F5.6347137983725236e-05
sV\u730e
p582
F5.9932864946325936e-05
sV\u5e10
p583
F5.122467089429567e-07
sV\u7814
p584
F1.7074890298098557e-07
sV\u6258
p585
F2.5612335447147834e-06
sV\u6218
p586
F8.87894295501125e-06
sV\u4e9b
p587
F0.00010603506875119205
sV\u611a
p588
F1.8782379327908412e-06
sV\u9a9a
p589
F6.829956119239423e-07
sV\u8c1c
p590
F4.268722574524639e-06
sV\u7620
p591
F1.7074890298098557e-07
sV\u52a3
p592
F5.122467089429567e-07
sV\u51a5
p593
F1.7074890298098557e-07
sV\u5f26
p594
F1.7074890298098557e-07
sV\u7ba9
p595
F2.048986835771827e-06
sV\u592a
p596
F9.254590541569418e-05
sV\u65ad
p597
F1.2123172111649975e-05
sV\u642c
p598
F5.634713798372524e-06
sV\u80af
p599
F2.168511067858517e-05
sV\u8fb1
p600
F8.537445149049278e-07
sV\u4e30
p601
F3.0734802536577403e-06
sV\u60b2
p602
F1.468440565636476e-05
sV\u7736
p603
F5.122467089429567e-07
sV\u7238
p604
F2.4929339835223894e-05
sV\u9ebb
p605
F2.0660617260699255e-05
sV\u5c3c
p606
F1.7074890298098557e-07
sV\u6e0a
p607
F1.7074890298098557e-07
sV\u4f46
p608
F0.00010501057533330613
sV\u8bc9
p609
F5.6859384692668195e-05
sV\u62e3
p610
F6.317709410296466e-06
sV\u50cf
p611
F7.137304144605196e-05
sV\u534e
p612
F8.366696246068294e-06
sV\u9ad3
p613
F1.7074890298098557e-07
sV\u5854
p614
F7.68370063414435e-06
sV\u6756
p615
F4.951718186448582e-06
sV\u8258
p616
F1.7074890298098557e-06
sV\u8ddd
p617
F1.0244934178859135e-06
sV\u9562
p618
F5.122467089429567e-07
sV\u71e5
p619
F1.7074890298098557e-07
sV\u8f66
p620
F4.9175684058523845e-05
sV\u846c
p621
F2.902731350676755e-06
sV\u60ef
p622
F2.048986835771827e-06
sV\u636e
p623
F1.3659912238478846e-06
sV\u4ff1
p624
F1.0244934178859135e-06
sV\u4e70
p625
F1.314766552953589e-05
sV\u53f9
p626
F8.537445149049278e-06
sV\u9c7c
p627
F3.056405363359642e-05
sV\u7b7e
p628
F1.5367401268288701e-06
sV\u6084
p629
F1.7416388104060527e-05
sV\u8f86
p630
F5.634713798372524e-06
sV\u95ed
p631
F2.731982447695769e-06
sV\u548c
p632
F0.00021002115066661226
sV\u900f
p633
F9.391189663954207e-06
sV\u5915
p634
F5.122467089429567e-07
sV\u6298
p635
F8.025198440106322e-06
sV\u4e1b
p636
F1.1269427596745048e-05
sV\u8d1d
p637
F4.61022038048661e-06
sV\u9aa8
p638
F8.87894295501125e-06
sV\u64ac
p639
F3.4149780596197115e-07
sV\u6f31
p640
F5.122467089429567e-07
sV\u6db2
p641
F5.122467089429567e-07
sV\u5339
p642
F1.8953128230889397e-05
sV\u5d3d
p643
F5.122467089429567e-07
sV\u5bbe
p644
F1.0244934178859135e-06
sV\u86c0
p645
F1.7074890298098557e-07
sV\u6c47
p646
F5.122467089429567e-07
sV\u6b49
p647
F3.4149780596197115e-07
sV\u964b
p648
F2.5612335447147834e-06
sV\u904f
p649
F1.7074890298098557e-07
sV\u7f51
p650
F3.585726962600697e-06
sV\u5955
p651
F3.4149780596197115e-07
sV\u8457
p652
F1.7074890298098557e-07
sV\u6e5b
p653
F8.537445149049278e-07
sV\u9ece
p654
F8.537445149049278e-07
sV\u8bde
p655
F5.122467089429567e-07
sV\u5761
p656
F5.122467089429567e-07
sV\u56e0
p657
F6.966555241624211e-05
sV\u5165
p658
F2.0660617260699255e-05
sV\u70e4
p659
F1.5538150171269685e-05
sV\u5b69
p660
F0.00011559700731812724
sV\u866b
p661
F2.390484641733798e-06
sV\u84ec
p662
F5.122467089429567e-07
sV\u606f
p663
F1.809938371598447e-05
sV\u4ef0
p664
F6.829956119239423e-07
sV\u72f8
p665
F3.397903169321613e-05
sV\u51fa
p666
F0.0002687587732920713
sV\u987f
p667
F1.3659912238478846e-05
sV\u8681
p668
F2.5612335447147834e-06
sV\u6700
p669
F0.00010552282204224909
sV\u6402
p670
F1.8782379327908412e-06
sV\u8a89
p671
F5.122467089429567e-07
sV\u978b
p672
F2.5612335447147837e-05
sV\u718f
p673
F1.195242320866899e-06
sV\u6597
p674
F1.4855154559345744e-05
sV\u4fd8
p675
F1.7074890298098557e-07
sV\u4f9b
p676
F2.731982447695769e-06
sV\u7720
p677
F3.0734802536577403e-06
sV\u7422
p678
F1.7074890298098557e-07
sV\u9e26
p679
F1.2976916626554904e-05
sV\u7b28
p680
F5.80546270135351e-06
sV\u87ab
p681
F6.829956119239423e-07
sV\u582a
p682
F2.5612335447147834e-06
sV\u64ad
p683
F6.829956119239423e-07
sV\u852c
p684
F1.8782379327908412e-06
sV\u4f30
p685
F6.829956119239423e-07
sV\u6934
p686
F6.829956119239423e-07
sV\u55b7
p687
F3.4149780596197114e-06
sV\u9636
p688
F2.390484641733798e-06
sV\u72b9
p689
F5.634713798372524e-06
sV\u503a
p690
F8.537445149049278e-07
sV\u9cbd
p691
F6.829956119239423e-07
sV\u7f13
p692
F1.3659912238478846e-06
sV\u6740
p693
F2.8685815700805577e-05
sV\u60c5
p694
F5.5322644565839325e-05
sV\u6144
p695
F5.122467089429567e-07
sV\u57cb
p696
F6.488458313277452e-06
sV6
p697
F5.122467089429567e-07
sV\u54cd
p698
F1.4342907850402789e-05
sV\u754c
p699
F1.929462603685137e-05
sV\u51cf
p700
F1.5367401268288701e-06
sV\u7ed1
p701
F2.902731350676755e-06
sV\u9f50
p702
F8.366696246068294e-06
sV\u5bd3
p703
F1.7074890298098557e-07
sV\u78d5
p704
F3.4149780596197115e-07
sV\u5954
p705
F6.488458313277452e-06
sV\u65d7
p706
F6.829956119239423e-07
sV\u62d9
p707
F3.4149780596197115e-07
sV\u8fdb
p708
F0.0001741638810406053
sV\u805a
p709
F2.048986835771827e-06
sV\u59bb
p710
F4.490696148399921e-05
sV\u9760
p711
F1.1440176499726034e-05
sV\u53e3
p712
F8.776493613222658e-05
sV\u5462
p713
F8.195947343087307e-05
sV\u7164
p714
F3.4149780596197114e-06
sV\u5de7
p715
F9.903436372897164e-06
sV\u9e66
p716
F1.7074890298098557e-07
sV\u5ae9
p717
F2.731982447695769e-06
sV\u62e6
p718
F1.8782379327908412e-06
sV\u656c
p719
F3.585726962600697e-06
sV\u7b3c
p720
F6.659207216258437e-06
sV\u8f70
p721
F2.390484641733798e-06
sV\u6c72
p722
F3.4149780596197115e-07
sV\u68f5
p723
F2.8002820088881634e-05
sV\u95f7
p724
F2.902731350676755e-06
sV\u9676
p725
F2.902731350676755e-06
sV\u5378
p726
F2.048986835771827e-06
sV\u7ffb
p727
F1.0244934178859134e-05
sV\u5c3e
p728
F1.0757180887802091e-05
sV\u59ff
p729
F8.537445149049278e-07
sV\u9a7e
p730
F3.585726962600697e-06
sV\u70c1
p731
F2.390484641733798e-06
sV\u8303
p732
F5.122467089429567e-07
sV\u8482
p733
F1.7074890298098557e-07
sV\u8005
p734
F1.161092540270702e-05
sV\u4e86
p735
F0.0017136359903171712
sV\u770b
p736
F0.00027046626232188114
sV\u540d
p737
F2.270960409647108e-05
sV\u7c92
p738
F3.585726962600697e-06
sV\u5815
p739
F1.7074890298098557e-07
sV\u6696
p740
F6.1469605073154806e-06
sV\u6398
p741
F1.7074890298098557e-07
sV\u809a
p742
F1.2293921014630961e-05
sV\u97a0
p743
F3.4149780596197115e-07
sV\u5323
p744
F1.3659912238478846e-06
sV\u94a2
p745
F6.829956119239423e-07
sV\u51a4
p746
F8.537445149049278e-07
sV\u7d27
p747
F2.6807577768014735e-05
sV\u9ea6
p748
F8.87894295501125e-06
sV\u672b
p749
F6.829956119239423e-07
sV\u642d
p750
F3.7564758655816825e-06
sV\u8fb0
p751
F3.4149780596197115e-07
sV\u5389
p752
F3.585726962600697e-06
sV\u7537
p753
F2.595383325310981e-05
sV\u5239
p754
F1.8782379327908412e-06
sV\u9f3b
p755
F5.976211604334495e-06
sV\u5c3d
p756
F2.5100088738204878e-05
sV\u75f4
p757
F1.195242320866899e-06
sV\u64c2
p758
F3.4149780596197115e-07
sV\u7977
p759
F5.976211604334495e-06
sV\u6d47
p760
F1.0244934178859135e-06
sV\u4ec6
p761
F3.210079376042529e-05
sV\u8bc8
p762
F6.829956119239423e-07
sV\u9e51
p763
F1.7074890298098557e-07
sV\u7855
p764
F3.4149780596197115e-07
sV\u59d4
p765
F5.122467089429567e-07
sV\u4f5b
p766
F4.268722574524639e-06
sV\u895f
p767
F1.7074890298098557e-07
sV\u9661
p768
F1.7074890298098557e-07
sV\u74e2
p769
F5.122467089429567e-07
sV\u9065
p770
F1.0244934178859135e-06
sV\u4e71
p771
F1.1781674305688004e-05
sV\u8ff0
p772
F3.0734802536577403e-06
sV\u96f6
p773
F4.097973671543654e-06
sV\u7279
p774
F3.363753388725416e-05
sV\u53f8
p775
F2.2197357387528123e-06
sV\u5f7b
p776
F2.5612335447147834e-06
sV\u56fe
p777
F2.048986835771827e-06
sV\u7c7d
p778
F6.829956119239423e-07
sV\u997f
p779
F1.65626435891556e-05
sV\u8981
p780
F0.000318958950768481
sV\u9a74
p781
F1.7074890298098556e-05
sV\u8f85
p782
F3.4149780596197115e-07
sV\u8106
p783
F1.7074890298098557e-06
sV\u7b8d
p784
F5.122467089429567e-07
sV\u5e8f
p785
F8.537445149049278e-07
sV\u9010
p786
F3.4149780596197115e-07
sV\u9493
p787
F2.731982447695769e-06
sV\u9614
p788
F4.097973671543654e-06
sV\u4f1a
p789
F0.00023597498391972205
sV\u865a
p790
F3.4149780596197114e-06
sV\u7126
p791
F2.5612335447147834e-06
sV\u5428
p792
F1.7074890298098557e-07
sV\u88ab
p793
F8.725268942328362e-05
sV\u8bad
p794
F1.0244934178859135e-06
sV\u8eaf
p795
F1.0244934178859135e-06
sV\u8d2e
p796
F1.0244934178859135e-06
sV0
p797
F1.7074890298098557e-07
sV\u9ab7
p798
F8.537445149049278e-07
sV\u5c38
p799
F4.951718186448582e-06
sV\u50bb
p800
F1.5538150171269685e-05
sV\u5f3a
p801
F1.9465374939832356e-05
sV\u76bf
p802
F1.7074890298098557e-07
sV\u553e
p803
F1.7074890298098557e-07
sV\u89c1
p804
F0.00016374819795876518
sV\u8840
p805
F1.161092540270702e-05
sV\u8fc5
p806
F3.244229156638726e-06
sV\u8e44
p807
F2.390484641733798e-06
sV\u62c7
p808
F5.976211604334495e-06
sV\u85c9
p809
F1.7074890298098557e-07
sV\u8f8d
p810
F1.7074890298098557e-07
sV\u7ecf
p811
F7.000705022220409e-05
sV\u91d1
p812
F0.00011679224963899413
sV\u5352
p813
F5.122467089429567e-07
sV\u86df
p814
F1.7074890298098557e-07
sV\u655e
p815
F1.5367401268288701e-06
sV\u7166
p816
F3.4149780596197115e-07
sV\u95e9
p817
F1.195242320866899e-06
sV\u5468
p818
F1.7245639201079543e-05
sV\u576a
p819
F1.7074890298098557e-07
sV\u8bed
p820
F1.65626435891556e-05
sV\u6d6e
p821
F1.0244934178859135e-06
sV\u6070
p822
F2.902731350676755e-06
sV\u6674
p823
F8.537445149049278e-07
sV\u9976
p824
F6.488458313277452e-06
sV\u50fb
p825
F1.0244934178859135e-06
sV\u53fd
p826
F2.2197357387528123e-06
sV\u557e
p827
F3.4149780596197115e-07
sV\u8c03
p828
F3.4149780596197114e-06
sV\u9a8c
p829
F3.244229156638726e-06
sV\u5999
p830
F4.951718186448582e-06
sV\u5413
p831
F1.844088152194644e-05
sV\u9694
p832
F2.2197357387528123e-06
sV\u829c
p833
F6.829956119239423e-07
sV\u661f
p834
F1.2976916626554904e-05
sV\u98a0
p835
F1.0244934178859135e-06
sV\u5ba2
p836
F1.7074890298098556e-05
sV\u5f25
p837
F1.3659912238478846e-06
sV\u7ea4
p838
F8.537445149049278e-07
sV\u9970
p839
F2.5612335447147834e-06
sV\u7529
p840
F5.122467089429567e-07
sV\u77aa
p841
F2.902731350676755e-06
sV\u8131
p842
F1.844088152194644e-05
sV\u6735
p843
F1.4855154559345744e-05
sV\u66b4
p844
F3.244229156638726e-06
sV\u5cb8
p845
F1.007418527587815e-05
sV\u563f
p846
F5.122467089429567e-07
sV\u75be
p847
F1.7074890298098557e-07
sV\u8941
p848
F1.7074890298098557e-07
sV\u68c0
p849
F1.3659912238478846e-06
sV\u6247
p850
F1.1269427596745048e-05
sV\u7076
p851
F1.5367401268288701e-06
sV\u5acc
p852
F1.7074890298098557e-06
sV\u5151
p853
F5.122467089429567e-07
sV\u504f
p854
F1.3659912238478846e-06
sV\u62dc
p855
F2.048986835771827e-06
sV\u5267
p856
F1.0244934178859135e-06
sV\u54e8
p857
F2.048986835771827e-06
sV\u886b
p858
F4.61022038048661e-06
sV\u60f0
p859
F1.195242320866899e-06
sV\u6775
p860
F1.0244934178859135e-06
sV\u66f4
p861
F3.1417798148501346e-05
sV\u7a77
p862
F2.2538855193490097e-05
sV\u72fc
p863
F3.4491278402159086e-05
sV\u6881
p864
F1.3659912238478846e-06
sV\u9001
p865
F3.927224768562668e-05
sV\u532a
p866
F1.7074890298098557e-07
sV\u6e85
p867
F8.537445149049278e-07
sV\u6387
p868
F1.7074890298098557e-07
sV\u998b
p869
F8.537445149049278e-07
sV\u7a8d
p870
F8.537445149049278e-07
sV\u5212
p871
F3.4149780596197114e-06
sV\u6816
p872
F1.195242320866899e-06
sV\u6c99
p873
F5.463964895391538e-06
sV\u819b
p874
F1.195242320866899e-06
sV\u4e1a
p875
F2.731982447695769e-06
sV\u829d
p876
F1.8782379327908412e-06
sV\u641e
p877
F1.5367401268288701e-06
sV\u7f24
p878
F1.7074890298098557e-07
sV\u5026
p879
F2.390484641733798e-06
sV\u54a9
p880
F9.561938566935192e-06
sV\u7528
p881
F0.00011098678693764062
sV\u762a
p882
F1.7074890298098557e-07
sV\u4faf
p883
F1.7074890298098557e-07
sV\u6734
p884
F3.4149780596197115e-07
sV\u7cb9
p885
F1.7074890298098557e-07
sV\u784c
p886
F1.7074890298098557e-07
sV\u51bb
p887
F2.5612335447147834e-06
sV\u88c1
p888
F4.7297446125733006e-05
sV\u7761
p889
F7.188528815499492e-05
sV\u8dc3
p890
F3.4149780596197114e-06
sV\u4ec5
p891
F6.659207216258437e-06
sV\u5eb7
p892
F5.80546270135351e-06
sV\u8046
p893
F3.4149780596197115e-07
sV\u6548
p894
F2.5612335447147834e-06
sV\u59cb
p895
F3.619876743196894e-05
sV\u5fcf
p896
F3.4149780596197115e-07
sV\u55d3
p897
F2.390484641733798e-06
sV\u96d5
p898
F1.195242320866899e-06
sV\u8e5a
p899
F6.829956119239423e-07
sV\u5f64
p900
F6.829956119239423e-07
sV\u54e9
p901
F6.317709410296466e-06
sV\u60af
p902
F8.537445149049278e-07
sV\u966a
p903
F3.585726962600697e-06
sV\u4fef
p904
F1.3659912238478846e-06
sV\u8170
p905
F6.488458313277452e-06
sV\u8272
p906
F3.2954538275330216e-05
sV\u8774
p907
F1.7074890298098557e-07
sV\u7bf7
p908
F7.0007050222204085e-06
sV\u9876
p909
F2.236810629050911e-05
sV\u51fb
p910
F4.268722574524639e-06
sV\u77ff
p911
F3.4149780596197115e-07
sV\u6e05
p912
F2.578308435012882e-05
sV\u6307
p913
F4.132123452139851e-05
sV\u8086
p914
F3.4149780596197115e-07
sV\u868a
p915
F1.3659912238478846e-06
sV\u7a0d
p916
F2.902731350676755e-06
sV\u5b8c
p917
F8.503295368453081e-05
sV\u5f0f
p918
F4.097973671543654e-06
sV\u7292
p919
F1.7074890298098557e-07
sV\u8896
p920
F1.195242320866899e-06
sV\u4e9a
p921
F8.87894295501125e-06
sV\u671f
p922
F7.512951731163365e-06
sV\u649e
p923
F5.976211604334495e-06
sV\u5821
p924
F2.236810629050911e-05
sV\u7fa4
p925
F1.690414139511757e-05
sV\u5429
p926
F8.87894295501125e-06
sV\u4f2f
p927
F8.366696246068294e-06
sV\u6cae
p928
F1.7074890298098557e-07
sV1
p929
F2.390484641733798e-06
sV\u5f1f
p930
F4.8834186252561876e-05
sV\u7eba
p931
F2.083136616368024e-05
sV\u723d
p932
F3.4149780596197115e-07
sV\u8d43
p933
F1.7074890298098557e-07
sV\u4e45
p934
F4.200423013332245e-05
sV\u51a0
p935
F4.951718186448582e-06
sV\u594b
p936
F5.80546270135351e-06
sV\u5bcc
p937
F2.475859093224291e-05
sV\u52d2
p938
F3.4149780596197114e-06
sV\u6dd8
p939
F6.829956119239423e-07
sV\u6eda
p940
F1.0757180887802091e-05
sV\u83dc
p941
F1.7074890298098556e-05
sV\u675f
p942
F5.976211604334495e-06
sV\u64de
p943
F1.7074890298098557e-07
sV\u5367
p944
F7.171453925201394e-06
sV\u70e6
p945
F7.34220282818238e-06
sV\u95e8
p946
F0.00011184053145254555
sV\u96ea
p947
F1.963612384281334e-05
sV\u8bec
p948
F5.122467089429567e-07
sV\u8f6f
p949
F4.268722574524639e-06
sV\u773a
p950
F6.829956119239423e-07
sV\u67f4
p951
F1.161092540270702e-05
sV\u58f6
p952
F2.731982447695769e-06
sV\u517b
p953
F1.2806167723573918e-05
sV\u5efa
p954
F5.80546270135351e-06
sV\u53fc
p955
F3.0734802536577403e-06
sV\u94fe
p956
F6.317709410296466e-06
sV\u8a00
p957
F1.77578859100225e-05
sV\u8902
p958
F1.7074890298098557e-06
sV\u8d85
p959
F2.048986835771827e-06
sV\u6789
p960
F1.195242320866899e-06
sV\u598d
p961
F1.7074890298098557e-07
sV\u780c
p962
F3.4149780596197115e-07
sV\u9f0e
p963
F1.7074890298098557e-07
sV\u5693
p964
F1.7074890298098557e-06
sV\u5112
p965
F5.122467089429567e-07
sV\u6897
p966
F3.4149780596197115e-07
sV\u8f99
p967
F3.4149780596197115e-07
sV\u4e18
p968
F1.7074890298098557e-07
sV\u629b
p969
F2.902731350676755e-06
sV\u819d
p970
F3.7564758655816825e-06
sV\u601c
p971
F2.9198062409748533e-05
sV\u7ba1
p972
F2.5100088738204878e-05
sV\u7a20
p973
F3.4149780596197115e-07
sV\u5c24
p974
F6.829956119239423e-07
sV\u57a9
p975
F1.7074890298098557e-07
sV\u83b1
p976
F1.314766552953589e-05
sV\u7fb9
p977
F8.537445149049278e-07
sV\u5e38
p978
F5.9932864946325936e-05
sV\u503c
p979
F4.439471477505625e-06
sV\u54bf
p980
F1.7074890298098557e-07
sV\u573e
p981
F1.0244934178859135e-06
sV\u8bc1
p982
F9.22044076097322e-06
sV\u4ec3
p983
F1.7074890298098557e-07
sV\u6942
p984
F1.7074890298098557e-07
sV\u8346
p985
F3.7564758655816825e-06
sV\u7acb
p986
F3.6369516334949924e-05
sV\u79cd
p987
F3.124704924552036e-05
sV\u584c
p988
F1.3659912238478846e-06
sV\u53d1
p989
F0.00013130590639237792
sV\u5f62
p990
F9.391189663954207e-06
sV\u75d5
p991
F8.537445149049278e-07
sV\u8fd9
p992
F0.0005774727898816932
sV\u4e58
p993
F2.048986835771827e-06
sV\u62db
p994
F8.195947343087308e-06
sV\u8d5a
p995
F3.4149780596197115e-07
sV\u5be1
p996
F1.5367401268288701e-06
sV\u7ee3
p997
F2.390484641733798e-06
sV\u5962
p998
F1.7074890298098557e-07
sV\u5de5
p999
F1.963612384281334e-05
sV\u70e7
p1000
F2.4587842029261922e-05
sV\u5366
p1001
F1.7074890298098557e-07
sV\u77e9
p1002
F8.537445149049278e-07
sV\u5668
p1003
F3.7564758655816825e-06
sV\u5566
p1004
F4.473621258101822e-05
sV\u886c
p1005
F3.585726962600697e-06
sV\u8f6e
p1006
F7.512951731163365e-06
sV\u9075
p1007
F1.3659912238478846e-06
sV\u8270
p1008
F2.390484641733798e-06
sV\u66f3
p1009
F3.4149780596197115e-07
sV\u5e78
p1010
F3.07348025365774e-05
sV\u707c
p1011
F3.4149780596197115e-07
sV\u4e03
p1012
F2.731982447695769e-05
sV\u6982
p1013
F1.5367401268288701e-06
sV\u996d
p1014
F3.107630034253937e-05
sV\u6709
p1015
F0.00046904723648876737
sV\u7a0b
p1016
F5.293215992410553e-06
sV\u590d
p1017
F1.844088152194644e-05
sV\u788c
p1018
F1.7074890298098557e-07
sV\u5c0f
p1019
F0.0004070653847066696
sV\u7f8e
p1020
F5.80546270135351e-05
sV\u9192
p1021
F2.902731350676755e-05
sV\u5494
p1022
F1.3659912238478846e-06
sV\u6817
p1023
F3.4149780596197115e-07
sV\u4f19
p1024
F6.471383422979354e-05
sV\u8f9b
p1025
F3.927224768562668e-06
sV\u9e23
p1026
F2.2197357387528123e-06
sV\u9ca4
p1027
F1.7074890298098557e-07
sV\u7729
p1028
F5.122467089429567e-07
sV\u60f3
p1029
F0.0001953367450102475
sV\u4fae
p1030
F5.122467089429567e-07
sV\u5bb6
p1031
F0.0001610162155110694
sV\u5f39
p1032
F7.171453925201394e-06
sV\u7eb8
p1033
F1.195242320866899e-06
sV\u523b
p1034
F3.739400975283584e-05
sV\u70bc
p1035
F5.122467089429567e-07
sV\u6e43
p1036
F3.4149780596197115e-07
sV\u89c2
p1037
F2.390484641733798e-06
sV\u6d45
p1038
F3.4149780596197115e-07
sV\u6cc4
p1039
F1.5367401268288701e-06
sV\u6749
p1040
F5.122467089429567e-07
sV\u5c4f
p1041
F5.122467089429567e-07
sV\u5351
p1042
F1.3659912238478846e-06
sV\u72d0
p1043
F3.466202730514007e-05
sV\u5555
p1044
F8.537445149049278e-07
sV\u8857
p1045
F3.927224768562668e-06
sV\u4f59
p1046
F4.951718186448582e-06
sV\u4ed8
p1047
F1.161092540270702e-05
sV\u625b
p1048
F1.007418527587815e-05
sV\u80dc
p1049
F4.780969283467596e-06
sV\u53e6
p1050
F3.227154266340627e-05
sV\u9769
p1051
F1.195242320866899e-06
sV\u96e8
p1052
F6.1469605073154806e-06
sV\u95ea
p1053
F1.8611630424927426e-05
sV\u4fee
p1054
F1.0244934178859135e-06
sV\u9877
p1055
F8.537445149049278e-07
sV\u5f79
p1056
F5.293215992410553e-06
sV\u7ef8
p1057
F2.048986835771827e-06
sV\u517d
p1058
F1.314766552953589e-05
sV\u4f83
p1059
F1.8782379327908412e-06
sV\u6708
p1060
F1.4342907850402789e-05
sV\u788d
p1061
F1.0244934178859135e-06
sV\u5310
p1062
F1.7074890298098557e-07
sV\u9152
p1063
F4.285797464822738e-05
sV\u9012
p1064
F5.976211604334495e-06
sV\u5495
p1065
F5.80546270135351e-06
sV\u4f18
p1066
F2.390484641733798e-06
sV\u62fe
p1067
F6.488458313277452e-06
sV\u809d
p1068
F1.195242320866899e-06
sV\u659f
p1069
F8.537445149049278e-07
sV\u7a84
p1070
F2.048986835771827e-06
sV\u9aa1
p1071
F1.7074890298098557e-07
sV\u7ca5
p1072
F3.244229156638726e-06
sV\u5728
p1073
F0.0007304638069526563
sV\u88ad
p1074
F1.0244934178859135e-06
sV\u6daf
p1075
F8.537445149049278e-07
sV\u8e2e
p1076
F1.7074890298098557e-07
sV\u62b1
p1077
F1.5196652365307716e-05
sV\u6109
p1078
F3.0734802536577403e-06
sV2
p1079
F3.4149780596197115e-07
sV\u64b5
p1080
F6.829956119239423e-07
sV\u5a36
p1081
F1.468440565636476e-05
sV\u7eb9
p1082
F1.7074890298098557e-06
sV\u7f38
p1083
F1.7074890298098557e-07
sV\u73bb
p1084
F8.537445149049278e-06
sV\u5c3a
p1085
F2.048986835771827e-06
sV\u763e
p1086
F3.4149780596197115e-07
sV\u4fc3
p1087
F5.122467089429567e-07
sV\u6842
p1088
F1.195242320866899e-06
sV\u8d44
p1089
F1.0244934178859135e-06
sV\u6748
p1090
F1.7074890298098557e-07
sV\u5636
p1091
F1.0244934178859135e-06
sV\u62b9
p1092
F1.5367401268288701e-06
sV\u4ed9
p1093
F2.2197357387528123e-06
sV\u8beb
p1094
F1.8782379327908412e-06
sV\u8def
p1095
F8.298396684875899e-05
sV\u6d3c
p1096
F3.4149780596197115e-07
sV\u82f1
p1097
F8.195947343087308e-06
sV\u67f3
p1098
F2.731982447695769e-06
sV\u5792
p1099
F6.829956119239423e-07
sV\u8574
p1100
F1.7074890298098557e-07
sV\u5a76
p1101
F1.0244934178859135e-06
sV\u90fd
p1102
F0.00020370344125631579
sV\u517c
p1103
F5.122467089429567e-07
sV\u767e
p1104
F1.7074890298098556e-05
sV\u8c05
p1105
F1.8782379327908412e-06
sV\u780d
p1106
F2.322185080541404e-05
sV\u5211
p1107
F5.293215992410553e-06
sV\u5594
p1108
F1.8782379327908412e-06
sV\u8f98
p1109
F1.3659912238478846e-06
sV\u631b
p1110
F1.7074890298098557e-07
sV\u601d
p1111
F1.2123172111649975e-05
sV\u5ba0
p1112
F1.7074890298098557e-07
sV\u5c25
p1113
F1.7074890298098557e-07
sV\u7629
p1114
F5.122467089429567e-07
sV\u54aa
p1115
F1.8782379327908412e-06
sV\u8d2f
p1116
F6.829956119239423e-07
sV\u4eae
p1117
F6.351859190892663e-05
sV\u8231
p1118
F3.4149780596197115e-07
sV\u63b0
p1119
F8.537445149049278e-07
sV\u80b2
p1120
F3.4149780596197115e-07
sV\u5937
p1121
F3.4149780596197115e-07
sV\u533b
p1122
F5.976211604334495e-06
sV\u96be
p1123
F3.6540265237930915e-05
sV\u8bc0
p1124
F1.7074890298098557e-07
sV\u88c2
p1125
F3.585726962600697e-06
sV\u8dc4
p1126
F8.537445149049278e-07
sV\u62c6
p1127
F6.829956119239423e-07
sV\u7b4b
p1128
F1.0244934178859135e-06
sV\u7ece
p1129
F1.7074890298098557e-07
sV\u5251
p1130
F8.708194052030264e-06
sV\u9753
p1131
F5.122467089429567e-07
sV\u5455
p1132
F5.122467089429567e-07
sV\u91cf
p1133
F1.4172158947421803e-05
sV\u8fd8
p1134
F0.0001716026474958905
sV\u9ed1
p1135
F3.8077005364759785e-05
sV\u5c65
p1136
F1.195242320866899e-06
sV\u7167
p1137
F2.4075595320318967e-05
sV\u7f50
p1138
F6.1469605073154806e-06
sV\u5669
p1139
F1.7074890298098557e-07
sV\u54ea
p1140
F5.259066211814356e-05
sV\u6773
p1141
F5.122467089429567e-07
sV\u9977
p1142
F5.122467089429567e-07
sV\u58d5
p1143
F5.122467089429567e-07
sV\u957f
p1144
F7.734925305038647e-05
sV\u96fe
p1145
F1.7074890298098557e-06
sV\u8d81
p1146
F6.829956119239423e-06
sV\u6f02
p1147
F4.063823890947457e-05
sV\u5e0c
p1148
F1.53674012682887e-05
sV\u9a8f
p1149
F2.731982447695769e-06
sV\u4eac
p1150
F1.7074890298098557e-07
sV\u7591
p1151
F3.927224768562668e-06
sV\u5410
p1152
F5.293215992410553e-06
sV\u679d
p1153
F1.844088152194644e-05
sV\u7531
p1154
F2.4587842029261922e-05
sV\u9526
p1155
F3.4149780596197115e-07
sV\u6cab
p1156
F1.0244934178859135e-06
sV\u732a
p1157
F1.468440565636476e-05
sV\u8033
p1158
F1.1781674305688004e-05
sV\u6234
p1159
F9.22044076097322e-06
sV\u7eb7
p1160
F6.317709410296466e-06
sV\u59b9
p1161
F2.936881131272952e-05
sV\u7838
p1162
F6.1469605073154806e-06
sV\u94bb
p1163
F1.1440176499726034e-05
sV\u52bf
p1164
F2.731982447695769e-06
sV\u8bc5
p1165
F1.0244934178859135e-06
sV\u86c7
p1166
F5.293215992410553e-06
sV\u5760
p1167
F6.829956119239423e-07
sV\u5ccb
p1168
F3.4149780596197115e-07
sV\u5fcd
p1169
F1.3318414432516874e-05
sV\u9e4c
p1170
F1.7074890298098557e-07
sV\u55d1
p1171
F5.122467089429567e-07
sV\u5450
p1172
F2.902731350676755e-06
sV\u9752
p1173
F2.5612335447147837e-05
sV\u5254
p1174
F6.829956119239423e-07
sV\u4ed7
p1175
F2.902731350676755e-06
sV\u8d56
p1176
F2.2197357387528123e-06
sV\u82df
p1177
F1.7074890298098557e-07
sV\u5de1
p1178
F8.537445149049278e-07
sV\u5c60
p1179
F4.439471477505625e-06
sV\u7f62
p1180
F6.488458313277452e-06
sV\u7566
p1181
F1.195242320866899e-06
sV\u82e5
p1182
F3.244229156638726e-06
sV\u8fed
p1183
F3.4149780596197115e-07
sV\u8e6c
p1184
F8.537445149049278e-07
sV\u65f1
p1185
F3.4149780596197115e-07
sV\u80f3
p1186
F3.585726962600697e-06
sV\u5ef7
p1187
F1.1440176499726034e-05
sV\u567c
p1188
F2.2197357387528123e-06
sV\u52ff
p1189
F1.7074890298098557e-07
sV\u6d01
p1190
F4.439471477505625e-06
sV\u8109
p1191
F3.4149780596197115e-07
sV\u94ed
p1192
F3.4149780596197115e-07
sV\u7c97
p1193
F6.1469605073154806e-06
sV\u5316
p1194
F4.780969283467596e-06
sV\u5490
p1195
F9.561938566935192e-06
sV\u7792
p1196
F1.0244934178859135e-06
sV\u5315
p1197
F3.4149780596197115e-07
sV\u6e17
p1198
F1.7074890298098557e-07
sV\u626e
p1199
F3.585726962600697e-06
sV\u671d
p1200
F2.544158654416685e-05
sV\u821f
p1201
F1.7074890298098557e-07
sV\u9aa4
p1202
F1.7074890298098557e-07
sV\u50a8
p1203
F5.122467089429567e-07
sV\u8eac
p1204
F5.122467089429567e-07
sV3
p1205
F3.4149780596197115e-07
sV\u8335
p1206
F5.122467089429567e-07
sV\u5939
p1207
F3.0734802536577403e-06
sV\u543b
p1208
F7.68370063414435e-06
sV\u56bc
p1209
F6.829956119239423e-07
sV\u6d41
p1210
F2.0319119454737283e-05
sV\u6843
p1211
F4.780969283467596e-06
sV\u53ca
p1212
F1.1098678693764063e-05
sV\u55f7
p1213
F1.0244934178859135e-06
sV\u5c4b
p1214
F5.0200177476409756e-05
sV\u9551
p1215
F1.7074890298098557e-07
sV\u94d0
p1216
F5.122467089429567e-07
sV\u9053
p1217
F0.00026568529303841356
sV\u5355
p1218
F6.829956119239423e-06
sV\u5ea6
p1219
F6.488458313277452e-06
sV\u68d8
p1220
F3.7564758655816825e-06
sV\u8bda
p1221
F8.87894295501125e-06
sV\u55e6
p1222
F8.537445149049278e-07
sV\u90e8
p1223
F1.348916333549786e-05
sV\u8c6b
p1224
F1.7074890298098557e-06
sV\u53ea
p1225
F0.0002924928708064283
sV\u6f6d
p1226
F3.0734802536577403e-06
sV\u4eec
p1227
F0.0006269899717461791
sV\u6073
p1228
F5.80546270135351e-06
sV\u62f4
p1229
F4.780969283467596e-06
sV\u5979
p1230
F0.0006314294432236846
sV\u547b
p1231
F1.195242320866899e-06
sV\u777d
p1232
F3.4149780596197115e-07
sV\u76fc
p1233
F1.3659912238478846e-06
sV\u82b1
p1234
F4.798044173765695e-05
sV\u6d2a
p1235
F1.7074890298098557e-07
sV\u8089
p1236
F2.168511067858517e-05
sV\u6108
p1237
F1.195242320866899e-06
sV\uff0c
p1238
F0.004421884340498583
sV\u5b8f
p1239
F6.829956119239423e-07
sV\u5510
p1240
F1.7074890298098557e-07
sV\u8f97
p1241
F8.537445149049278e-07
sV\u871c
p1242
F6.1469605073154806e-06
sV\u7d20
p1243
F1.7074890298098557e-07
sV\u7aa5
p1244
F5.122467089429567e-07
sV\u77a7
p1245
F2.390484641733798e-05
sV\u5426
p1246
F1.963612384281334e-05
sV\u722a
p1247
F7.34220282818238e-06
sV\u4ead
p1248
F1.7074890298098557e-07
sV\u7728
p1249
F4.097973671543654e-06
sV\u8baf
p1250
F5.122467089429567e-07
sV\u81b3
p1251
F3.4149780596197115e-07
sV\u62b5
p1252
F3.0734802536577403e-06
sV\u5fb7
p1253
F1.4172158947421803e-05
sV\u5938
p1254
F1.7074890298098557e-06
sV\u773c
p1255
F8.742343832626461e-05
sV\u503e
p1256
F2.731982447695769e-06
sV\u8e42
p1257
F3.4149780596197115e-07
sV\u6446
p1258
F1.929462603685137e-05
sV\u6148
p1259
F3.7564758655816825e-06
sV\u7ecd
p1260
F1.0244934178859135e-06
sV\u8863
p1261
F4.6102203804866104e-05
sV\u54d1
p1262
F2.048986835771827e-06
sV\u5550
p1263
F1.7074890298098557e-07
sV\u810f
p1264
F6.1469605073154806e-06
sV\u4fd7
p1265
F6.829956119239423e-07
sV\u88d9
p1266
F2.902731350676755e-06
sV\u5ce1
p1267
F2.2197357387528123e-06
sV\u5e62
p1268
F2.048986835771827e-06
sV\u7ae5
p1269
F3.927224768562668e-06
sV\u5b64
p1270
F5.80546270135351e-06
sV\u5168
p1271
F6.437233642383156e-05
sV\u526a
p1272
F7.512951731163365e-06
sV\u4f6c
p1273
F3.585726962600697e-06
sV\u8bef
p1274
F1.195242320866899e-06
sV\u6570
p1275
F1.161092540270702e-05
sV\u81f3
p1276
F1.0927929790783077e-05
sV\u7978
p1277
F1.5367401268288701e-06
sV\u95fb
p1278
F5.463964895391538e-06
sV\u7a7a
p1279
F2.629533105907178e-05
sV\u56fd
p1280
F0.00021565586446498477
sV\u903c
p1281
F3.4149780596197114e-06
sV\u707e
p1282
F1.7074890298098557e-06
sV\u8c01
p1283
F6.590907655066043e-05
sV\u628a
p1284
F0.0004082606270275365
sV\u9f8c
p1285
F1.7074890298098557e-07
sV\u788e
p1286
F1.0586431984821105e-05
sV\u5411
p1287
F6.62505743566224e-05
sV\u4f17
p1288
F2.902731350676755e-06
sV\u55c5
p1289
F2.048986835771827e-06
sV\u679c
p1290
F0.0001077425577810019
sV\u631f
p1291
F8.537445149049278e-07
sV\u7ea2
p1292
F3.158854705148233e-05
sV\u5ba4
p1293
F1.2976916626554904e-05
sV\u94a6
p1294
F5.122467089429567e-07
sV\u71a8
p1295
F5.122467089429567e-07
sV\u8d2b
p1296
F7.171453925201394e-06
sV\u52aa
p1297
F2.5612335447147834e-06
sV\u4e2d
p1298
F0.000141892338377199
sV\u65b0
p1299
F5.822537591651608e-05
sV\u8235
p1300
F1.7074890298098557e-07
sV\u83b4
p1301
F8.708194052030264e-06
sV\u8e48
p1302
F1.7074890298098557e-07
sV\u953b
p1303
F6.829956119239423e-07
sV\u733f
p1304
F3.4149780596197115e-07
sV\u6c41
p1305
F1.3659912238478846e-06
sV\u8d4a
p1306
F3.4149780596197115e-07
sV\u8bc4
p1307
F6.829956119239423e-07
sV\u8747
p1308
F2.902731350676755e-06
sV\u61c8
p1309
F1.7074890298098557e-07
sV\u5fcc
p1310
F5.122467089429567e-07
sV\u98ce
p1311
F2.5612335447147837e-05
sV\u76d2
p1312
F2.390484641733798e-06
sV\u53d4
p1313
F5.122467089429567e-07
sV\u655b
p1314
F1.7074890298098557e-07
sV\u67dc
p1315
F3.4149780596197114e-06
sV\u635f
p1316
F1.8782379327908412e-06
sV\u80de
p1317
F1.0244934178859135e-06
sV\u5c61
p1318
F1.7074890298098557e-07
sV\u7ee2
p1319
F3.4149780596197115e-07
sV\u54e6
p1320
F7.854449537125336e-06
sV\u8d6b
p1321
F1.7074890298098557e-07
sV\u7ea6
p1322
F1.929462603685137e-05
sV\u8e6d
p1323
F5.122467089429567e-07
sV\u68ee
p1324
F5.7371631401611154e-05
sV\u8471
p1325
F3.4149780596197115e-07
sV\u66f2
p1326
F5.293215992410553e-06
sV\u9879
p1327
F5.80546270135351e-06
sV\u79f8
p1328
F1.7074890298098557e-07
sV\u767d
p1329
F6.966555241624211e-05
sV\u4e00
p1330
F0.0014525609176592443
sV\u6487
p1331
F1.7074890298098557e-07
sV\u6389
p1332
F5.0370926379390747e-05
sV\u810a
p1333
F1.7074890298098557e-07
sV\u7791
p1334
F1.7074890298098557e-07
sV\u9014
p1335
F3.244229156638726e-06
sV\u641c
p1336
F2.2197357387528123e-06
sV\u609f
p1337
F5.122467089429567e-07
sV\u7fa1
p1338
F8.537445149049278e-07
sV\u9e20
p1339
F1.0244934178859135e-06
sV\u7d22
p1340
F3.585726962600697e-06
sV\u59a5
p1341
F1.3659912238478846e-06
sV\u5824
p1342
F3.4149780596197115e-07
sV\u54a7
p1343
F3.4149780596197115e-07
sV\u53a9
p1344
F4.097973671543654e-06
sV\u5228
p1345
F1.195242320866899e-06
sV\u4eab
p1346
F7.512951731163365e-06
sV\u5406
p1347
F3.4149780596197115e-07
sV\u68af
p1348
F9.561938566935192e-06
sV\u6089
p1349
F2.2197357387528123e-06
sV\u82b3
p1350
F5.122467089429567e-07
sV4
p1351
F5.122467089429567e-07
sV\u5bb9
p1352
F7.854449537125336e-06
sV\u593a
p1353
F4.61022038048661e-06
sV\u55bd
p1354
F1.195242320866899e-06
sV\u543c
p1355
F5.634713798372524e-06
sV\u733e
p1356
F2.048986835771827e-06
sV\u8fc1
p1357
F1.7074890298098557e-07
sV\u5537
p1358
F3.4149780596197115e-07
sV\u6746
p1359
F2.390484641733798e-06
sV\u63c9
p1360
F8.537445149049278e-07
sV\u5dcd
p1361
F1.8782379327908412e-06
sV\u7239
p1362
F5.122467089429567e-06
sV\u71d5
p1363
F1.0244934178859135e-06
sV\u86db
p1364
F3.4149780596197115e-07
sV\u695a
p1365
F7.512951731163365e-06
sV\u635e
p1366
F3.7564758655816825e-06
sV\u5fe1
p1367
F1.7074890298098557e-06
sV\u94e7
p1368
F6.829956119239423e-07
sV\u7766
p1369
F5.122467089429567e-07
sV\u916a
p1370
F4.097973671543654e-06
sV\u67f1
p1371
F3.244229156638726e-06
sV\u6670
p1372
F6.829956119239423e-07
sV\u62f3
p1373
F1.7074890298098557e-06
sV\u6572
p1374
F2.5100088738204878e-05
sV\u5bf9
p1375
F0.00016904141395117573
sV\u55fd
p1376
F5.122467089429567e-07
sV\u547c
p1377
F1.6391894686174616e-05
sV\u4f01
p1378
F3.4149780596197115e-07
sV\u6d82
p1379
F3.585726962600697e-06
sV\u6905
p1380
F8.195947343087308e-06
sV\u8884
p1381
F3.4149780596197115e-07
sV\u6309
p1382
F1.314766552953589e-05
sV\u818a
p1383
F3.4149780596197114e-06
sV\u9690
p1384
F2.902731350676755e-06
sV\u7115
p1385
F1.7074890298098557e-07
sV\u8f96
p1386
F1.7074890298098557e-07
sV\u7ea0
p1387
F1.0244934178859135e-06
sV\u7a23
p1388
F1.7074890298098557e-06
sV\u98a4
p1389
F3.4149780596197114e-06
sV\u5427
p1390
F0.00011474326280322231
sV\u57a6
p1391
F1.7074890298098557e-07
sV\u52a8
p1392
F7.137304144605196e-05
sV\u4e2b
p1393
F3.927224768562668e-06
sV\u8bae
p1394
F4.097973671543654e-06
sV\u6233
p1395
F1.3659912238478846e-06
sV\u60b4
p1396
F5.122467089429567e-07
sV\u9ab8
p1397
F1.7074890298098557e-07
sV\u563b
p1398
F6.829956119239423e-07
sV\u4ec0
p1399
F0.00016494344027963206
sV\u6447
p1400
F1.502590346232673e-05
sV\u87c6
p1401
F7.0007050222204085e-06
sV\u8349
p1402
F4.183348123034147e-05
sV\u81ca
p1403
F5.122467089429567e-07
sV\u5751
p1404
F2.2197357387528123e-06
sV\u76d0
p1405
F1.5367401268288701e-06
sV\u75d2
p1406
F6.829956119239423e-07
sV\u6c57
p1407
F2.731982447695769e-06
sV\u9ee0
p1408
F1.7074890298098557e-07
sV\u5de2
p1409
F2.2197357387528123e-06
sV\u7965
p1410
F5.122467089429567e-07
sV\u4fd0
p1411
F1.0244934178859135e-06
sV\u86f0
p1412
F3.4149780596197115e-07
sV\u8273
p1413
F1.7074890298098557e-06
sV\u7b79
p1414
F6.829956119239423e-07
sV\u767b
p1415
F2.048986835771827e-06
sV\u54fc
p1416
F1.8782379327908412e-06
sV\u707f
p1417
F1.5367401268288701e-06
sV\u8e81
p1418
F8.537445149049278e-07
sV\u6b83
p1419
F5.122467089429567e-07
sV\u622a
p1420
F1.3659912238478846e-06
sV\u8885
p1421
F3.4149780596197115e-07
sV\u6587
p1422
F3.585726962600697e-06
sV\u6606
p1423
F1.7074890298098557e-07
sV\u5f8b
p1424
F6.829956119239423e-07
sV\u798f
p1425
F1.65626435891556e-05
sV\u4e16
p1426
F3.278378937234923e-05
sV\u821e
p1427
F2.0489868357718267e-05
sV\u7f20
p1428
F4.268722574524639e-06
sV\u5ba3
p1429
F2.731982447695769e-06
sV\u55a7
p1430
F1.7074890298098557e-06
sV\u7626
p1431
F3.7564758655816825e-06
sV\u52a9
p1432
F9.391189663954207e-06
sV\u6d4e
p1433
F2.390484641733798e-06
sV\u8fab
p1434
F1.3659912238478846e-06
sV\u86b1
p1435
F5.122467089429567e-07
sV\u63b3
p1436
F1.7074890298098557e-07
sV\u5632
p1437
F5.122467089429567e-06
sV\u54bd
p1438
F1.7074890298098557e-06
sV\u4ec1
p1439
F3.585726962600697e-06
sV\u6c42
p1440
F4.6102203804866104e-05
sV\u88c5
p1441
F3.773550755879781e-05
sV\u62c9
p1442
F4.1491983424379494e-05
sV\u804a
p1443
F1.7074890298098557e-06
sV\u5d4c
p1444
F1.195242320866899e-06
sV\u76d1
p1445
F2.048986835771827e-06
sV\u7750
p1446
F1.7074890298098557e-07
sV\u5154
p1447
F2.3563348611376008e-05
sV\u4e56
p1448
F3.927224768562668e-06
sV\u5065
p1449
F6.488458313277452e-06
sV\u84dd
p1450
F4.951718186448582e-06
sV\u72e9
p1451
F1.195242320866899e-06
sV\u8feb
p1452
F4.951718186448582e-06
sV\u6770
p1453
F4.439471477505625e-06
sV\u5df7
p1454
F5.122467089429567e-07
sV\u5e76
p1455
F6.727506777450832e-05
sV\u7af9
p1456
F1.0244934178859135e-06
sV\u987a
p1457
F1.0244934178859134e-05
sV\u557c
p1458
F1.5367401268288701e-06
sV\u51ff
p1459
F8.537445149049278e-07
sV\u4e01
p1460
F5.80546270135351e-06
sV\u6805
p1461
F1.7074890298098557e-07
sV\u6388
p1462
F1.7074890298098557e-07
sV\u590f
p1463
F3.0734802536577403e-06
sV\u5492
p1464
F4.439471477505625e-06
sV\u6d17
p1465
F1.6733392492136587e-05
sV\u671b
p1466
F4.2516476842265405e-05
sV\u841d
p1467
F8.025198440106322e-06
sV\u659c
p1468
F1.7074890298098557e-07
sV\u611f
p1469
F3.107630034253937e-05
sV\u9e21
p1470
F4.02967411035126e-05
sV\u5527
p1471
F6.829956119239423e-07
sV\u5229
p1472
F1.963612384281334e-05
sV\u53a8
p1473
F2.2880352999452068e-05
sV\u6f2b
p1474
F3.7564758655816825e-06
sV\u90aa
p1475
F2.902731350676755e-06
sV5
p1476
F1.0244934178859135e-06
sV\u75bc
p1477
F1.7074890298098557e-06
sV\u513f
p1478
F0.0003478155153722676
sV\u6fc0
p1479
F3.7564758655816825e-06
sV\u89c4
p1480
F1.7074890298098557e-06
sV\u9981
p1481
F3.4149780596197115e-07
sV\u60ca
p1482
F2.9198062409748533e-05
sV\u594f
p1483
F5.122467089429567e-06
sV\u5353
p1484
F3.4149780596197115e-07
sV\u54d2
p1485
F3.4149780596197115e-07
sV\u5055
p1486
F1.7074890298098557e-07
sV\u4ed6
p1487
F0.0013905790658771465
sV\u9525
p1488
F1.7074890298098557e-07
sV\u68da
p1489
F5.976211604334495e-06
sV\u85dc
p1490
F5.122467089429567e-07
sV\u5fe0
p1491
F2.1343612872623198e-05
sV\u5b63
p1492
F8.537445149049278e-07
sV\u79e4
p1493
F3.4149780596197115e-07
sV\u9550
p1494
F3.4149780596197115e-07
sV\u7269
p1495
F4.132123452139851e-05
sV\u53e8
p1496
F5.122467089429567e-07
sV\u8671
p1497
F3.244229156638726e-06
sV\u81f4
p1498
F4.268722574524639e-06
sV\u5ef6
p1499
F8.537445149049278e-07
sV\u9a79
p1500
F2.731982447695769e-06
sV\u5bf8
p1501
F5.122467089429567e-07
sV\u78fa
p1502
F1.7074890298098557e-07
sV\u547d
p1503
F4.7297446125733006e-05
sV\u917f
p1504
F5.122467089429567e-07
sV\u52fe
p1505
F1.0244934178859135e-06
sV\u9000
p1506
F7.854449537125336e-06
sV\u7483
p1507
F8.537445149049278e-06
sV\u7785
p1508
F4.61022038048661e-06
sV\u9a87
p1509
F1.7074890298098557e-07
sV\u808b
p1510
F5.122467089429567e-07
sV\u820c
p1511
F5.634713798372524e-06
sV\u50ac
p1512
F1.195242320866899e-06
sV\u8f95
p1513
F3.4149780596197115e-07
sV\u6e14
p1514
F1.2123172111649975e-05
sV\u7599
p1515
F5.122467089429567e-07
sV\u5b9d
p1516
F3.124704924552036e-05
sV\u5a1c
p1517
F4.61022038048661e-06
sV\u5e9f
p1518
F1.7074890298098557e-06
sV\u6020
p1519
F3.4149780596197115e-07
sV\u8c28
p1520
F6.829956119239423e-07
sV\u4f2a
p1521
F1.3659912238478846e-06
sV\u722c
p1522
F3.005180692465346e-05
sV\u552e
p1523
F1.7074890298098557e-07
sV\u7830
p1524
F1.0244934178859135e-06
sV\u5cb3
p1525
F6.829956119239423e-07
sV\u65b9
p1526
F4.627295270784709e-05
sV\u673a
p1527
F8.537445149049278e-06
sV\u8bbd
p1528
F1.195242320866899e-06
sV\u6d3e
p1529
F1.622114578319363e-05
sV\u94c3
p1530
F2.048986835771827e-06
sV\u9644
p1531
F5.293215992410553e-06
sV\u5c48
p1532
F1.195242320866899e-06
sV\u60cb
p1533
F1.7074890298098557e-07
sV\u63cd
p1534
F2.5612335447147834e-06
sV\u4e54
p1535
F3.4149780596197115e-07
sV\u72d7
p1536
F2.1343612872623198e-05
sV\u5458
p1537
F1.5367401268288701e-06
sV\u575a
p1538
F8.537445149049278e-06
sV\u7bdd
p1539
F8.537445149049278e-07
sV\u7edf
p1540
F3.0734802536577403e-06
sV\u6362
p1541
F1.502590346232673e-05
sV\u67e5
p1542
F3.244229156638726e-06
sV\u70eb
p1543
F1.7074890298098557e-06
sV\u53ed
p1544
F5.122467089429567e-07
sV\u76ef
p1545
F4.780969283467596e-06
sV\u5ff5
p1546
F7.68370063414435e-06
sV\u5e74
p1547
F8.298396684875899e-05
sV\u62f7
p1548
F1.7074890298098557e-07
sV\u7168
p1549
F1.7074890298098557e-07
sV\u6478
p1550
F5.122467089429567e-06
sV\u4eff
p1551
F4.268722574524639e-06
sV\u9080
p1552
F5.122467089429567e-06
sV\u7403
p1553
F7.854449537125336e-06
sV\u7684
p1554
F0.002022862253615736
sV\u5a07
p1555
F6.829956119239423e-07
sV\u9986
p1556
F3.4149780596197114e-06
sV\u9c88
p1557
F1.7074890298098557e-07
sV\u7f8a
p1558
F4.4053216969094275e-05
sV\u660f
p1559
F5.80546270135351e-06
sV\u8f6c
p1560
F2.749057337993868e-05
sV\u6c13
p1561
F1.195242320866899e-06
sV\u81c2
p1562
F2.2197357387528123e-06
sV\u6bef
p1563
F2.902731350676755e-06
sV\u5217
p1564
F2.731982447695769e-06
sV\u9519
p1565
F1.0757180887802091e-05
sV\u7a9c
p1566
F3.244229156638726e-06
sV\u9e1f
p1567
F6.078660946123086e-05
sV\u80a0
p1568
F7.512951731163365e-06
sV\u63a2
p1569
F4.951718186448582e-06
sV\u8725
p1570
F1.7074890298098557e-07
sV\u86a4
p1571
F1.8782379327908412e-06
sV\u5570
p1572
F3.4149780596197115e-07
sV\u8d29
p1573
F1.7074890298098557e-06
sV\u72ac
p1574
F1.3659912238478846e-06
sV\u5931
p1575
F2.083136616368024e-05
sV\u78b0
p1576
F2.390484641733798e-05
sV\u6237
p1577
F1.0586431984821105e-05
sV\u6539
p1578
F3.0734802536577403e-06
sV\u84b8
p1579
F1.7074890298098557e-07
sV\u8dbe
p1580
F1.5367401268288701e-06
sV\u5141
p1581
F2.731982447695769e-06
sV\u53c2
p1582
F5.80546270135351e-06
sV\u96c4
p1583
F2.2197357387528123e-06
sV\u79c6
p1584
F1.5367401268288701e-06
sV\u514d
p1585
F6.1469605073154806e-06
sV\u804b
p1586
F6.829956119239423e-07
sV\u62cc
p1587
F5.122467089429567e-07
sV\u864f
p1588
F1.7074890298098557e-07
sV\u6bd2
p1589
F7.34220282818238e-06
sV\u4f55
p1590
F5.054167528237173e-05
sV\u4ed4
p1591
F6.317709410296466e-06
sV\u9189
p1592
F1.195242320866899e-06
sV\u5978
p1593
F5.122467089429567e-07
sV\u7559
p1594
F2.9539560215710504e-05
sV\u5b5d
p1595
F5.122467089429567e-07
sV\u556a
p1596
F2.5612335447147834e-06
sV\u6765
p1597
F0.0007644428386458724
sV\u86e4
p1598
F7.0007050222204085e-06
sV\u89e6
p1599
F6.829956119239423e-07
sV\u6d69
p1600
F6.829956119239423e-07
sV\u6ce8
p1601
F9.22044076097322e-06
sV\u706b
p1602
F5.2249164312181585e-05
sV\u8fea
p1603
F5.80546270135351e-06
sV\u72ec
p1604
F1.3830661141459831e-05
sV\u95ee
p1605
F0.00011047454022869766
sV\u9971
p1606
F1.3318414432516874e-05
sV\u58f0
p1607
F9.561938566935192e-05
sV\u7c73
p1608
F3.4149780596197114e-06
sV\u7ef4
p1609
F1.8782379327908412e-06
sV\u6e7f
p1610
F2.048986835771827e-06
sV\u5583
p1611
F8.537445149049278e-07
sV\u9704
p1612
F6.829956119239423e-07
sV\u5b87
p1613
F1.7074890298098557e-07
sV\u5806
p1614
F2.1855859581566153e-05
sV\u7c89
p1615
F5.463964895391538e-06
sV\u618b
p1616
F5.122467089429567e-07
sV\u840e
p1617
F3.4149780596197115e-07
sV\u8910
p1618
F3.4149780596197115e-07
sV\u4e95
p1619
F1.53674012682887e-05
sV\u6f14
p1620
F3.585726962600697e-06
sV\u5499
p1621
F1.3659912238478846e-06
sV\u7518
p1622
F3.4149780596197114e-06
sV\u7a9d
p1623
F5.122467089429567e-06
sV\u80a1
p1624
F2.902731350676755e-06
sV\u6120
p1625
F1.7074890298098557e-07
sV\u8d28
p1626
F2.2197357387528123e-06
sV\u8e2a
p1627
F4.61022038048661e-06
sV\u732c
p1628
F1.2806167723573918e-05
sV\u542e
p1629
F1.7074890298098557e-07
sV\u78b1
p1630
F1.7074890298098557e-07
sV\u7eb5
p1631
F1.7074890298098557e-07
sV\u83b7
p1632
F4.268722574524639e-06
sV\u8036
p1633
F1.7074890298098557e-06
sV\u7ef7
p1634
F1.7074890298098557e-07
sV\u4fbf
p1635
F0.00011491401170620329
sV\u9634
p1636
F2.731982447695769e-06
sV\u90c1
p1637
F6.829956119239423e-07
sV\u8361
p1638
F7.171453925201394e-06
sV\u96c5
p1639
F5.463964895391538e-06
sV\u7bc7
p1640
F5.122467089429567e-07
sV\u62cd
p1641
F7.68370063414435e-06
sV\u53d7
p1642
F3.1417798148501346e-05
sV\u7c38
p1643
F5.122467089429567e-07
sV\u7565
p1644
F3.4149780596197115e-07
sV\u90bb
p1645
F2.5612335447147834e-06
sV\u5c5e
p1646
F5.463964895391538e-06
sV\u80e1
p1647
F1.1269427596745048e-05
sV\u7f3a
p1648
F6.1469605073154806e-06
sV\u8be7
p1649
F1.0244934178859135e-06
sV\u6866
p1650
F5.122467089429567e-07
sV\u72ed
p1651
F6.829956119239423e-07
sV\u5f69
p1652
F3.585726962600697e-06
sV\u7ef5
p1653
F8.537445149049278e-07
sV\u6076
p1654
F2.083136616368024e-05
sV\u5a74
p1655
F2.390484641733798e-06
sV\u667a
p1656
F3.4149780596197114e-06
sV\u3001
p1657
F8.605744710241673e-05
sV\u9503
p1658
F1.7074890298098557e-07
sV\u9605
p1659
F3.4149780596197115e-07
sV\u7784
p1660
F2.390484641733798e-06
sV\u9886
p1661
F1.4513656753383774e-05
sV\u5c09
p1662
F3.4149780596197115e-07
sV\u5e8a
p1663
F4.5760705998904136e-05
sV\u820d
p1664
F7.0007050222204085e-06
sV\u638c
p1665
F5.976211604334495e-06
sV\u6811
p1666
F0.00011679224963899413
sV\u5317
p1667
F8.537445149049278e-07
sV\u7096
p1668
F3.4149780596197115e-07
sV\u5598
p1669
F1.8782379327908412e-06
sV\u5b9c
p1670
F1.5367401268288701e-06
sV\uff1f
p1671
F0.00021855859581566153
sV\u6021
p1672
F1.7074890298098557e-07
sV\u62a2
p1673
F3.7564758655816825e-06
sV\u6625
p1674
F2.390484641733798e-06
sV\u82c7
p1675
F3.4149780596197115e-07
sV\u68a6
p1676
F1.0927929790783077e-05
sV\u6da8
p1677
F3.4149780596197115e-07
sV\u6eaa
p1678
F6.488458313277452e-06
sV\u5e73
p1679
F1.5538150171269685e-05
sV\u772f
p1680
F3.4149780596197115e-07
sV\u94ae
p1681
F1.5367401268288701e-06
sV\u6cbe
p1682
F8.537445149049278e-07
sV\u51c0
p1683
F1.1269427596745048e-05
sV\u5543
p1684
F2.5612335447147834e-06
sV\u72c2
p1685
F4.951718186448582e-06
sV\u9645
p1686
F3.7564758655816825e-06
sV\u9b47
p1687
F1.7074890298098557e-07
sV\u5c49
p1688
F8.537445149049278e-07
sV\u6bcd
p1689
F7.905674208019632e-05
sV\u814b
p1690
F5.122467089429567e-07
sV\u7eca
p1691
F3.4149780596197115e-07
sV\u624d
p1692
F6.386008971488861e-05
sV\u6851
p1693
F3.4149780596197115e-07
sV\u6d53
p1694
F1.3659912238478846e-06
sV\u8fd4
p1695
F3.4149780596197114e-06
sV\u5357
p1696
F5.463964895391538e-06
sV\u56da
p1697
F1.5367401268288701e-06
sV\u9cde
p1698
F6.829956119239423e-07
sV\u51d1
p1699
F1.0244934178859135e-06
sV\u6563
p1700
F7.0007050222204085e-06
sV\u62e2
p1701
F1.7074890298098557e-06
sV\u8de8
p1702
F4.439471477505625e-06
sV\u516b
p1703
F7.34220282818238e-06
sV\u4eea
p1704
F4.097973671543654e-06
sV\u53ec
p1705
F6.1469605073154806e-06
sV\u576f
p1706
F3.4149780596197115e-07
sV\u54ee
p1707
F2.048986835771827e-06
sV\u79f0
p1708
F5.976211604334495e-06
sV\u8377
p1709
F1.8782379327908412e-06
sV\u60f6
p1710
F5.122467089429567e-07
sV\u4f7f
p1711
F4.661445051380906e-05
sV\u5200
p1712
F1.9465374939832356e-05
sV\u5404
p1713
F1.8611630424927426e-05
sV\u7b06
p1714
F3.244229156638726e-06
sV\u5e08
p1715
F3.893074987966471e-05
sV\u7d0a
p1716
F1.7074890298098557e-07
sV\u800c
p1717
F0.0001041568308184012
sV\u6912
p1718
F1.7074890298098557e-07
sV\u6d95
p1719
F5.122467089429567e-07
sV\u6c14
p1720
F5.7883878110554106e-05
sV\u7316
p1721
F1.7074890298098557e-07
sV\u5618
p1722
F2.390484641733798e-06
sV\u751a
p1723
F4.780969283467596e-06
sV\u65a5
p1724
F1.195242320866899e-06
sV\u8424
p1725
F1.7074890298098557e-07
sV\u68a7
p1726
F1.7074890298098557e-07
sV\u8fa9
p1727
F2.2197357387528123e-06
sV\u52ab
p1728
F1.5367401268288701e-06
sV\u8d2a
p1729
F3.585726962600697e-06
sV\u54af
p1730
F3.0734802536577403e-06
sV\u7bb1
p1731
F8.195947343087308e-06
sV\u7eb3
p1732
F1.195242320866899e-06
sV
p1733
F6.829956119239423e-07
sV\u8336
p1734
F8.537445149049278e-07
sV\u8638
p1735
F1.7074890298098557e-07
sV\u683c
p1736
F2.4929339835223894e-05
sV\u6cbf
p1737
F3.927224768562668e-06
sV\u75c5
p1738
F2.4417093126280938e-05
sV\u804c
p1739
F1.195242320866899e-06
sV\u8bd1
p1740
F1.7074890298098557e-07
sV\u4ed3
p1741
F2.731982447695769e-06
sV\u5356
p1742
F1.2123172111649975e-05
sV\u753b
p1743
F7.512951731163365e-06
sV\u7cdf
p1744
F5.122467089429567e-06
sV\uff5e
p1745
F5.122467089429567e-07
sV\u63e1
p1746
F4.780969283467596e-06
sV\u7a91
p1747
F1.7074890298098557e-07
sV\u6162
p1748
F2.117286396964221e-05
sV\u65e5
p1749
F1.8782379327908413e-05
sV\u8b66
p1750
F2.5612335447147834e-06
sV\u4fe9
p1751
F2.4587842029261922e-05
sV\u578b
p1752
F3.4149780596197115e-07
sV\u6d6a
p1753
F5.80546270135351e-06
sV\u51ed
p1754
F2.048986835771827e-06
sV\u7bf1
p1755
F4.780969283467596e-06
sV\u9a70
p1756
F1.8782379327908412e-06
sV\u7ef3
p1757
F1.1098678693764063e-05
sV\u9972
p1758
F6.829956119239423e-07
sV\u6376
p1759
F3.4149780596197115e-07
sV\u87f9
p1760
F1.7074890298098557e-06
sV\u69fd
p1761
F1.3659912238478846e-06
sV\u8c41
p1762
F1.7074890298098557e-07
sV\u9505
p1763
F1.348916333549786e-05
sV\uff09
p1764
F2.390484641733798e-06
sV\u808c
p1765
F1.7074890298098557e-07
sV\u640f
p1766
F1.195242320866899e-06
sV\u6a90
p1767
F3.4149780596197115e-07
sV\u4e13
p1768
F1.5367401268288701e-06
sV\u7eef
p1769
F1.7074890298098557e-07
sV\u9017
p1770
F1.0244934178859135e-06
sV\u989c
p1771
F1.8782379327908412e-06
sV\u7f9e
p1772
F1.8782379327908412e-06
sV\u6321
p1773
F2.5612335447147834e-06
sV\u62a0
p1774
F1.7074890298098557e-07
sV\u64a4
p1775
F1.3659912238478846e-06
sV\u4ea8
p1776
F8.537445149049278e-07
sV\u522b
p1777
F6.522608093873648e-05
sV\u70ac
p1778
F1.7074890298098557e-07
sV\u542f
p1779
F6.829956119239423e-07
sV\u57ae
p1780
F1.7074890298098557e-07
sV\u9ab0
p1781
F1.7074890298098557e-07
sV\u8d9f
p1782
F1.3659912238478846e-06
sV\u8037
p1783
F6.829956119239423e-07
sV\u6d4b
p1784
F5.122467089429567e-07
sV\u8fbe
p1785
F9.391189663954207e-06
sV\u5341
p1786
F5.259066211814356e-05
sV\u7545
p1787
F1.0244934178859135e-06
sV\u54c4
p1788
F1.7074890298098557e-07
sV\u5bc6
p1789
F8.366696246068294e-06
sV\u7ec8
p1790
F2.902731350676755e-05
sV\u624b
p1791
F0.00011764599415389906
sV\u5976
p1792
F2.629533105907178e-05
sV\u80cc
p1793
F3.5003525111102045e-05
sV\u89d2
p1794
F1.8782379327908413e-05
sV\u9057
p1795
F3.244229156638726e-06
sV\u53d6
p1796
F2.9198062409748533e-05
sV\u9759
p1797
F1.8953128230889397e-05
sV\u76d8
p1798
F1.502590346232673e-05
sV\u795d
p1799
F4.268722574524639e-06
sV\u9524
p1800
F4.951718186448582e-06
sV\u6361
p1801
F4.951718186448582e-06
sV\u82d4
p1802
F1.3659912238478846e-06
sV\u6867
p1803
F2.731982447695769e-06
sV\u8be6
p1804
F5.122467089429567e-07
sV\u4f69
p1805
F8.537445149049278e-07
sV\u4ee8
p1806
F6.829956119239423e-07
sV\u8dea
p1807
F4.097973671543654e-06
sV\u516d
p1808
F1.4172158947421803e-05
sV\u70ec
p1809
F3.585726962600697e-06
sV\u77ee
p1810
F3.43205294991781e-05
sV\u9e73
p1811
F1.8782379327908412e-06
sV\u65fa
p1812
F3.0734802536577403e-06
sV\u7281
p1813
F4.268722574524639e-06
sV\u5300
p1814
F1.7074890298098557e-07
sV\u5783
p1815
F1.0244934178859135e-06
sV\u9002
p1816
F4.268722574524639e-06
sV\u9504
p1817
F1.8782379327908412e-06
sV\u5987
p1818
F1.8782379327908413e-05
sV\uff08
p1819
F2.390484641733798e-06
sV\u5c0a
p1820
F2.731982447695769e-06
sV\u660e
p1821
F4.439471477505625e-05
sV\u8f93
p1822
F1.7074890298098557e-06
sV\u85af
p1823
F6.829956119239423e-07
sV\u5b9b
p1824
F1.7074890298098557e-07
sV\u989d
p1825
F1.8782379327908412e-06
sV\u591c
p1826
F4.1150485618417526e-05
sV\u62a1
p1827
F1.7074890298098557e-07
sV\u6320
p1828
F1.5367401268288701e-06
sV\u67a3
p1829
F1.7074890298098557e-07
sV"
p1830
F0.0018744814569252597
sV\u73ab
p1831
F1.161092540270702e-05
sV\u70ad
p1832
F5.80546270135351e-06
sV\u75af
p1833
F3.0734802536577403e-06
sV\u643a
p1834
F5.122467089429567e-07
sV\u4e3e
p1835
F2.1514361775604182e-05
sV\u6c61
p1836
F1.7074890298098557e-06
sV\u9042
p1837
F1.7074890298098557e-07
sV\u94c5
p1838
F5.122467089429567e-07
sV\u5544
p1839
F4.268722574524639e-06
sV\u5a46
p1840
F7.478801950567168e-05
sV\u5ec9
p1841
F3.4149780596197115e-07
sV\u7236
p1842
F8.417920916962588e-05
sV\u653e
p1843
F8.452070697558786e-05
sV\u614c
p1844
F4.268722574524639e-06
sV\u65cf
p1845
F2.5612335447147834e-06
sV\u864e
p1846
F3.244229156638726e-06
sV\u6cd5
p1847
F5.617638908074425e-05
sV\u8d54
p1848
F2.048986835771827e-06
sV\u5256
p1849
F3.4149780596197115e-07
sV\u745a
p1850
F1.7074890298098557e-07
sV\u6062
p1851
F9.903436372897164e-06
sV\u7686
p1852
F3.4149780596197115e-07
sV\u6ee9
p1853
F5.122467089429567e-07
sV\u8f68
p1854
F1.7074890298098557e-07
sV\u53eb
p1855
F0.0001219147167284237
sV\u8c6a
p1856
F2.048986835771827e-06
sV\u70ed
p1857
F1.3659912238478846e-05
sV\u516c
p1858
F0.00012635418820592932
sV\u95ef
p1859
F3.0734802536577403e-06
sV\u6276
p1860
F2.5612335447147834e-06
sV\u8bfb
p1861
F5.122467089429567e-07
sV\u697c
p1862
F2.01483705517563e-05
sV\u5201
p1863
F3.4149780596197115e-07
sV\u5703
p1864
F1.7074890298098557e-07
sV\u5584
p1865
F1.0586431984821105e-05
sV\u5907
p1866
F2.424634422329995e-05
sV\u5f88
p1867
F0.00011884123647476595
sV\u5996
p1868
F8.366696246068294e-06
sV\u800d
p1869
F1.5367401268288701e-06
sV\u6f13
p1870
F3.4149780596197115e-07
sV\u7b1b
p1871
F6.317709410296466e-06
sV\u549a
p1872
F1.7074890298098557e-06
sV\u5e9e
p1873
F1.195242320866899e-06
sV\u63a0
p1874
F1.3659912238478846e-06
sV\u80a2
p1875
F2.048986835771827e-06
sV\u8425
p1876
F1.195242320866899e-06
sV\u65a4
p1877
F1.7074890298098557e-07
sV\u6e29
p1878
F2.5612335447147834e-06
sV\u8fa8
p1879
F5.122467089429567e-07
sV\u732b
p1880
F2.6466079962052764e-05
sV\u51ac
p1881
F4.097973671543654e-06
sV\u552f
p1882
F1.8782379327908412e-06
sV\u76ae
p1883
F2.8173568991862618e-05
sV\u5bb0
p1884
F1.8782379327908412e-06
sV\u561f
p1885
F2.902731350676755e-06
sV\u84ba
p1886
F5.122467089429567e-07
sV\u683d
p1887
F8.537445149049278e-07
sV\u5241
p1888
F1.7074890298098557e-07
sV\u5c4a
p1889
F3.4149780596197115e-07
sV\u5947
p1890
F1.809938371598447e-05
sV\u9e49
p1891
F1.7074890298098557e-07
sV\u634b
p1892
F1.7074890298098557e-07
sV\u7cca
p1893
F3.927224768562668e-06
sV\u654f
p1894
F1.5367401268288701e-06
sV\u914c
p1895
F1.7074890298098557e-07
sV\u5e26
p1896
F9.852211702002868e-05
sV\u4f53
p1897
F1.468440565636476e-05
sV\u68d2
p1898
F2.731982447695769e-06
sV\u85cf
p1899
F1.7416388104060527e-05
sV\u7ede
p1900
F8.87894295501125e-06
sV\u85e4
p1901
F3.4149780596197115e-07
sV\u7b50
p1902
F5.122467089429567e-06
sV\u536b
p1903
F8.537445149049278e-06
sV\u6cea
p1904
F8.366696246068294e-06
sV\u706d
p1905
F3.927224768562668e-06
sV\u76ee
p1906
F1.9465374939832356e-05
sV\u9a71
p1907
F1.5367401268288701e-06
sV\u5df4
p1908
F1.5538150171269685e-05
sV\u6177
p1909
F5.122467089429567e-07
sV\u8679
p1910
F1.7074890298098557e-07
sV\u6b7b
p1911
F9.783912140810473e-05
sV\u5385
p1912
F9.049691857992235e-06
sV\u5e87
p1913
F1.7074890298098557e-07
sV\u878d
p1914
F5.122467089429567e-07
sV\u86d9
p1915
F8.87894295501125e-06
sV\u5199
p1916
F5.463964895391538e-06
sV\u5c9b
p1917
F1.0244934178859135e-06
sV\u7a9f
p1918
F5.122467089429567e-07
sV\u60a3
p1919
F5.122467089429567e-07
sV\u8722
p1920
F3.4149780596197115e-07
sV\u63a5
p1921
F6.112810726719284e-05
sV\u4ea7
p1922
F5.80546270135351e-06
sV\u8d26
p1923
F6.829956119239423e-07
sV\u54ab
p1924
F1.7074890298098557e-07
sV\u6c6a
p1925
F4.951718186448582e-06
sV\u97ad
p1926
F2.902731350676755e-06
sV\u72af
p1927
F5.122467089429567e-06
sV\u8389
p1928
F3.0734802536577403e-06
sV\u78b3
p1929
F3.4149780596197115e-07
sV\u5bb5
p1930
F8.537445149049278e-07
sV\u5a34
p1931
F1.7074890298098557e-07
sV\u6536
p1932
F1.1781674305688004e-05
sV8
p1933
F2.390484641733798e-06
sV\u6cbb
p1934
F5.976211604334495e-06
sV\u633a
p1935
F8.537445149049278e-06
sV\u8fbd
p1936
F3.4149780596197115e-07
sV\u5440
p1937
F6.556757874469846e-05
sV\u7ec7
p1938
F5.122467089429567e-06
sV\u7360
p1939
F5.122467089429567e-07
sV\u906d
p1940
F7.34220282818238e-06
sV\u82cf
p1941
F4.439471477505625e-06
sV\u614e
p1942
F5.122467089429567e-07
sV\u8dd1
p1943
F7.786149975932942e-05
sV\u8bd5
p1944
F1.929462603685137e-05
sV\u76d7
p1945
F1.4855154559345744e-05
sV\u9cb8
p1946
F6.829956119239423e-07
sV\u535a
p1947
F1.3659912238478846e-06
sV\u59fb
p1948
F5.122467089429567e-07
sV\u7adf
p1949
F2.2026608484547138e-05
sV\u795e
p1950
F2.6807577768014735e-05
sV\u8d66
p1951
F1.0244934178859135e-06
sV\u8868
p1952
F9.22044076097322e-06
sV\u6b6a
p1953
F8.537445149049278e-07
sV\u77ed
p1954
F2.731982447695769e-06
sV\u566c
p1955
F1.7074890298098557e-07
sV\u716e
p1956
F7.512951731163365e-06
sV\u5df1
p1957
F0.0001396726026384462
sV\u58f3
p1958
F2.390484641733798e-06
sV\u963f
p1959
F3.4149780596197115e-07
sV\u8ffd
p1960
F2.0660617260699255e-05
sV\u9501
p1961
F7.171453925201394e-06
sV\u7480
p1962
F1.7074890298098557e-07
sV\u9003
p1963
F2.117286396964221e-05
sV\u5782
p1964
F3.927224768562668e-06
sV\u5305
p1965
F4.337022135717034e-05
sV\u7284
p1966
F1.0244934178859135e-06
sV\u74e6
p1967
F2.5612335447147834e-06
sV\u9888
p1968
F1.7074890298098557e-07
sV\u870d
p1969
F2.390484641733798e-06
sV\u8f83
p1970
F1.3659912238478846e-06
sV\u620f
p1971
F4.780969283467596e-06
sV\u916c
p1972
F3.7564758655816825e-06
sV\u6c90
p1973
F5.122467089429567e-07
sV\u6813
p1974
F8.537445149049278e-07
sV\u55ef
p1975
F1.7074890298098557e-07
sV\u9119
p1976
F6.829956119239423e-07
sV\u539a
p1977
F3.7564758655816825e-06
sV\u7f1d
p1978
F5.924986933440199e-05
sV\u5e9c
p1979
F1.5367401268288701e-06
sV\u9ec4
p1980
F9.049691857992235e-06
sV\u6325
p1981
F4.097973671543654e-06
sV\u62a4
p1982
F4.780969283467596e-06
sV\u4e27
p1983
F3.4149780596197114e-06
sV\u6da6
p1984
F1.5367401268288701e-06
sV\u68a8
p1985
F2.902731350676755e-06
sV\u542b
p1986
F1.0244934178859135e-06
sV\u972d
p1987
F1.7074890298098557e-07
sV\u60b8
p1988
F1.7074890298098557e-07
sV\u83ba
p1989
F6.829956119239423e-07
sV\u5fa1
p1990
F1.0244934178859135e-06
sV\u57c2
p1991
F5.122467089429567e-07
sV\u5949
p1992
F1.5367401268288701e-06
sV\u6d51
p1993
F5.463964895391538e-06
sV\u96f9
p1994
F3.4149780596197115e-07
sV\u55d6
p1995
F1.5367401268288701e-06
sV\u5f8a
p1996
F5.122467089429567e-07
sV\u7edc
p1997
F1.7074890298098557e-07
sV\u94a7
p1998
F1.7074890298098557e-07
sV\u7f1a
p1999
F3.4149780596197115e-07
sV\u526f
p2000
F5.122467089429567e-06
sV\u73a9
p2001
F1.1781674305688004e-05
sV\u5b75
p2002
F3.4149780596197115e-07
sV\u65f6
p2003
F0.00028446767236632196
sV\u8179
p2004
F6.829956119239423e-07
sV\u80f8
p2005
F3.4149780596197114e-06
sV\u8f7d
p2006
F1.5367401268288701e-06
sV\u8eab
p2007
F0.00010808405558696387
sV\u76d4
p2008
F1.0244934178859135e-06
sV\u9500
p2009
F6.829956119239423e-07
sV\u5c06
p2010
F7.530026621461464e-05
sV\u638f
p2011
F7.512951731163365e-06
sV\u600e
p2012
F7.000705022220409e-05
sV\u521a
p2013
F4.0979736715436535e-05
sV\u9e9d
p2014
F1.7074890298098557e-07
sV\u82a5
p2015
F1.7074890298098557e-07
sV\u6324
p2016
F4.439471477505625e-06
sV\u4fa7
p2017
F1.7074890298098557e-06
sV\u8c26
p2018
F1.0244934178859135e-06
sV\u6a2a
p2019
F2.902731350676755e-06
sV\u73af
p2020
F5.976211604334495e-06
sV\u902e
p2021
F3.0734802536577403e-06
sV\u8e09
p2022
F8.537445149049278e-07
sV\u9e32
p2023
F1.7074890298098557e-07
sV\u67b7
p2024
F5.122467089429567e-07
sV\u6f88
p2025
F1.195242320866899e-06
sV\u8138
p2026
F2.8002820088881634e-05
sV\u4f3c
p2027
F1.8270132618965458e-05
sV\u6bbf
p2028
F1.2806167723573918e-05
sV\u94c1
p2029
F2.4587842029261922e-05
sV\u9540
p2030
F3.4149780596197115e-07
sV\u71c3
p2031
F8.025198440106322e-06
sV\u5948
p2032
F3.0734802536577403e-06
sV\u65cb
p2033
F3.0734802536577403e-06
sV\u63cf
p2034
F5.122467089429567e-07
sV\u8d50
p2035
F4.951718186448582e-06
sV\u77d7
p2036
F1.0244934178859135e-06
sV\u70d9
p2037
F3.4149780596197115e-07
sV\u768e
p2038
F3.4149780596197115e-07
sV\u9edd
p2039
F1.0244934178859135e-06
sV\u3002
p2040
F0.001988200226310596
sV\u585e
p2041
F1.3318414432516874e-05
sV\u8865
p2042
F3.7564758655816825e-06
sV\u81e3
p2043
F5.80546270135351e-06
sV\u793a
p2044
F6.829956119239423e-06
sV\u62e5
p2045
F4.097973671543654e-06
sV\u7267
p2046
F2.424634422329995e-05
sV\u59d1
p2047
F8.452070697558786e-05
sV\u56ed
p2048
F1.9465374939832356e-05
sV\u9f13
p2049
F1.622114578319363e-05
sV\u53ef
p2050
F0.00031281199026116557
sV\u906e
p2051
F3.585726962600697e-06
sV\u5e72
p2052
F8.861868064713151e-05
sV\u60f9
p2053
F8.537445149049278e-07
sV\u6dfb
p2054
F1.3659912238478846e-06
sV\u827a
p2055
F6.659207216258437e-06
sV\u4efd
p2056
F6.829956119239423e-06
sV\u786b
p2057
F1.7074890298098557e-07
sV\u5401
p2058
F3.4149780596197115e-07
sV\u5580
p2059
F3.4149780596197115e-07
sV\u7682
p2060
F8.537445149049278e-07
sV\u5384
p2061
F1.195242320866899e-06
sV\u5988
p2062
F3.688176304389288e-05
sV\u6c11
p2063
F9.391189663954207e-06
sV\u8913
p2064
F1.7074890298098557e-07
sV\u4e92
p2065
F6.317709410296466e-06
sV\u5496
p2066
F3.4149780596197115e-07
sV\u5019
p2067
F4.815119064063793e-05
sV\u5e1d
p2068
F3.9955243297550624e-05
sV\u589e
p2069
F1.7074890298098557e-06
sV\u6421
p2070
F3.4149780596197115e-07
sV\u9171
p2071
F1.195242320866899e-06
sV\u6123
p2072
F3.4149780596197115e-07
sV\u6ca6
p2073
F1.7074890298098557e-07
sV\u6829
p2074
F6.829956119239423e-07
sV\u69a8
p2075
F1.7074890298098557e-07
sV\u752b
p2076
F1.7074890298098557e-07
sV\u562d
p2077
F3.4149780596197115e-07
sV\u77ac
p2078
F1.8782379327908412e-06
sV\u70ae
p2079
F8.537445149049278e-07
sV\u5c31
p2080
F0.0004780969283467596
sV\u5bb4
p2081
F5.122467089429567e-06
sV\u8737
p2082
F3.4149780596197115e-07
sV9
p2083
F3.4149780596197115e-07
sV\u6d3b
p2084
F7.717850414740548e-05
sV\u4e3d
p2085
F3.927224768562668e-05
sV\u6ecb
p2086
F2.731982447695769e-06
sV\u76f4
p2087
F6.215260068507874e-05
sV\u5143
p2088
F2.5612335447147834e-06
sV\u5a77
p2089
F3.4149780596197115e-07
sV\u634f
p2090
F1.195242320866899e-06
sV\u80ce
p2091
F1.8782379327908412e-06
sV\u6bd4
p2092
F4.234572793928442e-05
sV\u5757
p2093
F5.959136714036397e-05
sV\u98de
p2094
F4.985867967044779e-05
sV\u8461
p2095
F5.80546270135351e-06
sV\u65e0
p2096
F7.939823988615829e-05
sV\u9650
p2097
F1.7074890298098557e-06
sV\u6869
p2098
F1.7074890298098557e-06
sV\u77ec
p2099
F1.7074890298098557e-07
sV\u5c71
p2100
F5.976211604334495e-05
sV\u8e29
p2101
F3.585726962600697e-06
sV\u5973
p2102
F0.0001668216782124229
sV\u632b
p2103
F1.7074890298098557e-07
sV\u5600
p2104
F2.5612335447147834e-06
sV\u5185
p2105
F1.4513656753383774e-05
sV\u5b89
p2106
F3.9101498782645697e-05
sV\u630e
p2107
F1.0244934178859135e-06
sV\u6e10
p2108
F6.317709410296466e-06
sV\u8a93
p2109
F3.7564758655816825e-06
sV\u6d12
p2110
F3.244229156638726e-06
sV\u952f
p2111
F3.4149780596197115e-07
sV\u4fea
p2112
F1.7074890298098557e-07
sV\u711a
p2113
F5.122467089429567e-07
sV\u56db
p2114
F3.824775426774077e-05
sV\u789f
p2115
F2.5612335447147834e-06
sV\u5f04
p2116
F1.7245639201079543e-05
sV\u6620
p2117
F1.195242320866899e-06
sV\u4f26
p2118
F4.268722574524639e-06
sV\u8ba9
p2119
F0.00012584194149698637
sV\u892a
p2120
F5.122467089429567e-07
sV\u542c
p2121
F0.00013352564213113072
sV\u70af
p2122
F3.4149780596197115e-07
sV\u732e
p2123
F2.731982447695769e-06
sV\u5ab3
p2124
F1.5367401268288701e-06
sV\u7834
p2125
F1.5879647977231657e-05
sV\u64b7
p2126
F1.7074890298098557e-07
sV\u83b9
p2127
F5.122467089429567e-07
sV\u835e
p2128
F3.4149780596197115e-07
sV\u6b3e
p2129
F1.195242320866899e-06
sV\u52c3
p2130
F4.268722574524639e-06
sV\u86cb
p2131
F2.1343612872623198e-05
sV\u538b
p2132
F6.488458313277452e-06
sV\u634e
p2133
F1.7074890298098557e-07
sV\u8fd1
p2134
F1.7928634813003486e-05
sV\u4e50
p2135
F3.31252871783112e-05
sV\u8854
p2136
F2.048986835771827e-06
sV\u54d7
p2137
F3.0734802536577403e-06
sV\u53d9
p2138
F1.7074890298098557e-07
sV\u5ddd
p2139
F1.7074890298098557e-07
sV\u98df
p2140
F1.65626435891556e-05
sV\u9510
p2141
F1.5367401268288701e-06
sV\u82e3
p2142
F8.708194052030264e-06
sV\u6562
p2143
F1.7245639201079543e-05
sV\u6f66
p2144
F3.4149780596197115e-07
sV\u6377
p2145
F1.0244934178859135e-06
sV\u5766
p2146
F1.0244934178859135e-06
sV\u609a
p2147
F8.537445149049278e-07
sV\u7ff1
p2148
F5.122467089429567e-07
sV\u9e70
p2149
F5.976211604334495e-06
sV\u8212
p2150
F7.34220282818238e-06
sV\u8776
p2151
F1.7074890298098557e-07
sV\u4efb
p2152
F2.7661322282919663e-05
sV\u7701
p2153
F1.195242320866899e-06
sV\u5203
p2154
F1.0244934178859135e-06
sV\u5582
p2155
F1.0927929790783077e-05
sV\u5b97
p2156
F3.4149780596197115e-07
sV\u7c07
p2157
F1.0244934178859135e-06
sV\u5b09
p2158
F3.4149780596197115e-07
sV\u838e
p2159
F5.976211604334495e-06
sV\u4f11
p2160
F1.3659912238478846e-05
sV\u6e90
p2161
F6.829956119239423e-07
sV\u70c2
p2162
F4.268722574524639e-06
sV\u5417
p2163
F5.20784154092006e-05
sV\u5319
p2164
F9.903436372897164e-06
sV\u9c9c
p2165
F7.854449537125336e-06
sV\u5b9e
p2166
F4.934643296150483e-05
sV\u8721
p2167
F3.4149780596197114e-06
sV\u80a4
p2168
F2.390484641733798e-06
sV\u8c27
p2169
F1.7074890298098557e-07
sV\u762b
p2170
F5.122467089429567e-07
sV\u752d
p2171
F3.4149780596197115e-07
sV\u54ac
p2172
F9.561938566935192e-06
sV\u53ae
p2173
F6.829956119239423e-07
sV\u5f31
p2174
F4.780969283467596e-06
sV\u7a33
p2175
F3.7564758655816825e-06
sV\u67b6
p2176
F1.1098678693764063e-05
sV\u4e3b
p2177
F0.00017962784593599684
sV\u6cbc
p2178
F5.122467089429567e-07
sV\u8bbe
p2179
F3.7564758655816825e-06
sV\u7741
p2180
F5.80546270135351e-06
sV\u96c0
p2181
F1.1098678693764063e-05
sV\u5243
p2182
F2.048986835771827e-06
sV\u5145
p2183
F7.171453925201394e-06
sV\u5fc6
p2184
F5.122467089429567e-07
sV\u7b49
p2185
F7.034854802816606e-05
sV\u59ca
p2186
F8.537445149049278e-07
sV\u51cc
p2187
F5.122467089429567e-07
sV\u4f51
p2188
F3.585726962600697e-06
sV\u5457
p2189
F1.3659912238478846e-06
sV\u5bde
p2190
F6.829956119239423e-07
sV\u6761
p2191
F5.259066211814356e-05
sV\u6263
p2192
F3.7564758655816825e-06
sV\u65e2
p2193
F1.4855154559345744e-05
sV\u8165
p2194
F5.122467089429567e-07
sV\u706f
p2195
F1.0586431984821105e-05
sV\u53ee
p2196
F2.902731350676755e-06
sV\u5f71
p2197
F6.1469605073154806e-06
sV\u7ef0
p2198
F6.829956119239423e-07
sV\u9a73
p2199
F6.829956119239423e-07
sV\u5df2
p2200
F8.810643393818855e-05
sV\u78f4
p2201
F1.7074890298098557e-07
sV\u6cfc
p2202
F2.048986835771827e-06
sV\u9700
p2203
F9.22044076097322e-06
sV\u5085
p2204
F6.317709410296466e-06
sV\u5e06
p2205
F1.0244934178859135e-06
sV\u6784
p2206
F1.7074890298098557e-07
sV\u818f
p2207
F2.2197357387528123e-06
sV\u4e91
p2208
F4.61022038048661e-06
sV\u4f10
p2209
F1.8782379327908412e-06
sV\u6001
p2210
F1.8782379327908412e-06
sV\u7597
p2211
F1.7074890298098557e-07
sV\u901a
p2212
F1.502590346232673e-05
sV\u63a3
p2213
F1.7074890298098557e-07
sV\u80a5
p2214
F5.463964895391538e-06
sV\u6124
p2215
F4.61022038048661e-06
sV\u6da7
p2216
F1.7074890298098557e-07
sV\u57ab
p2217
F1.8782379327908412e-06
sV\u682a
p2218
F2.048986835771827e-06
sV\u552c
p2219
F1.3659912238478846e-06
sV\u522e
p2220
F4.097973671543654e-06
sV\u7eb1
p2221
F5.976211604334495e-06
sV\u7f30
p2222
F1.8782379327908412e-06
sV\u5bb3
p2223
F3.5003525111102045e-05
sV\u5934
p2224
F0.00019140952024168482
sV\u82b9
p2225
F1.7074890298098557e-07
sV\u8338
p2226
F6.829956119239423e-07
sV\u8d3c
p2227
F2.902731350676755e-06
sV\u8734
p2228
F1.7074890298098557e-07
sV\u7740
p2229
F0.0004888541092345617
sV\u5144
p2230
F3.31252871783112e-05
sV\u53e0
p2231
F3.4149780596197115e-07
sV\u5ac9
p2232
F3.4149780596197114e-06
sV\u64cd
p2233
F2.5612335447147834e-06
sV\u654c
p2234
F4.951718186448582e-06
sV\u624e
p2235
F5.293215992410553e-06
sV\u6ed1
p2236
F4.951718186448582e-06
sV\u4f50
p2237
F1.7074890298098557e-07
sV\u68d5
p2238
F1.8782379327908412e-06
sV\u6954
p2239
F1.0244934178859135e-06
sV\u505a
p2240
F9.032616967694136e-05
sV\u79df
p2241
F1.7074890298098557e-07
sV\u6760
p2242
F1.7074890298098557e-07
sV\u63e3
p2243
F5.122467089429567e-07
sV\u4e3a
p2244
F0.00018970203121187497
sV\u4e66
p2245
F3.7564758655816825e-06
sV\u82bd
p2246
F5.122467089429567e-07
sV\u77eb
p2247
F1.7074890298098557e-07
sV\u54ed
p2248
F3.261304046936824e-05
sV\u556c
p2249
F8.537445149049278e-07
sV\u51ef
p2250
F4.61022038048661e-06
sV\u5974
p2251
F4.097973671543654e-06
sV\u65f7
p2252
F6.829956119239423e-07
sV\u6676
p2253
F6.317709410296466e-06
sV\u82f9
p2254
F1.9465374939832356e-05
sV\u6cfd
p2255
F8.537445149049278e-07
sV\u6094
p2256
F3.585726962600697e-06
sV\u9601
p2257
F1.3659912238478846e-06
sV\u5482
p2258
F3.4149780596197115e-07
sV\u7184
p2259
F6.829956119239423e-07
sV\u5d07
p2260
F1.7074890298098557e-07
sV\u5e86
p2261
F1.7074890298098557e-06
sV\u5b88
p2262
F1.3659912238478846e-05
sV\u670b
p2263
F1.195242320866899e-05
sV\u988a
p2264
F1.8782379327908412e-06
sV\u610f
p2265
F0.00010381533301243923
sV\u4e11
p2266
F6.488458313277452e-06
sV\u6994
p2267
F1.7074890298098557e-07
sV\u5219
p2268
F1.7245639201079543e-05
sV\uff1b
p2269
F4.337022135717034e-05
sV\u5c1d
p2270
F6.659207216258437e-06
sV\u591f
p2271
F1.7928634813003486e-05
sV\u6323
p2272
F6.488458313277452e-06
sV\u54b3
p2273
F1.0244934178859135e-06
sV\u6025
p2274
F2.01483705517563e-05
sV\u8d27
p2275
F3.4149780596197114e-06
sV\u4ea6
p2276
F3.4149780596197115e-07
sV\u8ba8
p2277
F5.634713798372524e-06
sV\u542d
p2278
F2.902731350676755e-06
sV\u8f73
p2279
F3.4149780596197115e-07
sV\u5835
p2280
F6.829956119239423e-07
sV\u501f
p2281
F5.122467089429567e-06
sV\u8239
p2282
F2.0319119454737283e-05
sV\u79cb
p2283
F8.537445149049278e-07
sV\u5343
p2284
F1.809938371598447e-05
sV\u51c4
p2285
F2.048986835771827e-06
sV\u7ec6
p2286
F1.195242320866899e-05
sV\u62ce
p2287
F1.7074890298098557e-06
sV\u8e51
p2288
F1.0244934178859135e-06
sV\u8fd0
p2289
F2.0319119454737283e-05
sV\u76d6
p2290
F1.2806167723573918e-05
sV\u7259
p2291
F3.927224768562668e-06
sV\u53d8
p2292
F4.695594831977103e-05
sV\u7ade
p2293
F3.4149780596197115e-07
sV\u6363
p2294
F5.122467089429567e-07
sV\u54fa
p2295
F3.4149780596197115e-07
sV\u8be8
p2296
F1.7074890298098557e-07
sV\u55ec
p2297
F1.0244934178859135e-06
sV\u72ee
p2298
F1.4513656753383774e-05
sV\u7ff0
p2299
F7.68370063414435e-06
sV\u9875
p2300
F1.7074890298098557e-07
sV\u6577
p2301
F3.4149780596197115e-07
sV\u6279
p2302
F1.7074890298098557e-07
sV\u8f7b
p2303
F4.3028723551208364e-05
sV\u6c7d
p2304
F3.4149780596197115e-07
sV\u897f
p2305
F7.051929693114704e-05
sV\u7981
p2306
F9.903436372897164e-06
sV\u5f85
p2307
F2.3392599708395024e-05
sV\u5589
p2308
F1.5367401268288701e-06
sV\u5408
p2309
F1.5708899074250673e-05
sV\u888b
p2310
F4.678519941679005e-05
sV\u4e8f
p2311
F2.2197357387528123e-06
sV\u8010
p2312
F4.61022038048661e-06
sV\u6795
p2313
F6.659207216258437e-06
sV\u7a97
p2314
F2.6807577768014735e-05
sV\u5916
p2315
F5.703013359564918e-05
sV\u5d99
p2316
F3.4149780596197115e-07
sV\u5c18
p2317
F1.195242320866899e-06
sV\uff1a
p2318
F0.0005276141102112454
sV\u6b22
p2319
F2.6124582156090792e-05
sV\u4fa5
p2320
F6.829956119239423e-07
sV\u4e24
p2321
F0.00011662150073601314
sV\u94f6
p2322
F1.9977621648775312e-05
sV\u65a9
p2323
F5.122467089429567e-07
sV\u8428
p2324
F3.4149780596197115e-07
sV\u672a
p2325
F8.537445149049278e-06
sV\u7bad
p2326
F3.0734802536577403e-06
sV\u7eaf
p2327
F3.927224768562668e-06
sV\u94b3
p2328
F8.537445149049278e-07
sV\u5634
p2329
F2.083136616368024e-05
sV\u8936
p2330
F1.7074890298098557e-07
sV\u6c38
p2331
F8.87894295501125e-06
sV\u4f3a
p2332
F1.7074890298098557e-06
sV\u80b4
p2333
F2.902731350676755e-06
sV\u79c1
p2334
F2.5612335447147834e-06
sV\u7840
p2335
F1.7074890298098557e-07
sV\u9b42
p2336
F2.902731350676755e-06
sV\u7fc5
p2337
F5.293215992410553e-06
sV\u52c7
p2338
F9.391189663954207e-06
sV\u75c9
p2339
F1.7074890298098557e-07
sV\u5448
p2340
F1.0244934178859135e-06
sV\u574a
p2341
F1.6050396880212644e-05
sV\u8bcd
p2342
F1.0244934178859135e-06
sV\u8d4e
p2343
F6.829956119239423e-07
sV\u6050
p2344
F5.80546270135351e-06
sV\u5fd8
p2345
F1.2464669917611947e-05
sV\u8352
p2346
F7.171453925201394e-06
sV\u8654
p2347
F2.390484641733798e-06
sV\u7956
p2348
F1.8782379327908412e-06
sV\u4ee5
p2349
F0.0001468440565636476
sV\u70db
p2350
F3.244229156638726e-06
sV\u7f5a
p2351
F5.976211604334495e-06
sV\u963b
p2352
F1.5367401268288701e-06
sV\u76df
p2353
F3.4149780596197115e-07
sV\u6ce3
p2354
F6.317709410296466e-06
sV\u6b62
p2355
F1.0757180887802091e-05
sV\u62e7
p2356
F1.7074890298098557e-06
sV\u65e9
p2357
F5.0200177476409756e-05
sV\u58eb
p2358
F4.593145490188512e-05
sV\u9a6c
p2359
F0.00013079365968343495
sV\u9eef
p2360
F1.7074890298098557e-07
sV\u7070
p2361
F1.809938371598447e-05
sV\u8dcb
p2362
F8.537445149049278e-07
sV\u6df9
p2363
F4.097973671543654e-06
sV\u6f7a
p2364
F3.4149780596197115e-07
sV\u63fd
p2365
F3.4149780596197115e-07
sV\u66ff
p2366
F1.2635418820592933e-05
sV\u857e
p2367
F9.391189663954207e-06
sV\u7901
p2368
F8.537445149049278e-07
sV\u566a
p2369
F1.7074890298098557e-07
sV\u5e84
p2370
F9.903436372897164e-06
sV\u5207
p2371
F4.8834186252561876e-05
sV\u5509
p2372
F1.3830661141459831e-05
sV\u9488
p2373
F1.041568308184012e-05
sV\u680b
p2374
F1.7074890298098557e-06
sV\u8e0f
p2375
F6.488458313277452e-06
sV\u6d8e
p2376
F1.7074890298098557e-07
sV\u8111
p2377
F1.8270132618965458e-05
sV\u8c34
p2378
F1.7074890298098557e-07
sV\u6392
p2379
F8.87894295501125e-06
sV\u9996
p2380
F8.366696246068294e-06
sV\u7c98
p2381
F3.0734802536577403e-06
sV\u901b
p2382
F6.829956119239423e-07
sV\u961f
p2383
F7.34220282818238e-06
sV\u7c3f
p2384
F3.4149780596197115e-07
sV\u8ba2
p2385
F6.829956119239423e-07
sV\u4ea4
p2386
F1.77578859100225e-05
sV\u6170
p2387
F5.293215992410553e-06
sV\u9e2d
p2388
F8.537445149049278e-06
sV\u67aa
p2389
F9.22044076097322e-06
sV\u5530
p2390
F8.537445149049278e-07
sV\u6349
p2391
F4.097973671543654e-06
sV\u7433
p2392
F1.161092540270702e-05
sV\u73b2
p2393
F5.122467089429567e-07
sV\u8d39
p2394
F1.314766552953589e-05
sV\u6cb8
p2395
F3.4149780596197115e-07
sV\u803b
p2396
F8.537445149049278e-07
sV\u633d
p2397
F1.7074890298098557e-06
sV\u62bc
p2398
F2.390484641733798e-06
sV\u5bc2
p2399
F1.3659912238478846e-06
sV\u7ec4
p2400
F5.122467089429567e-07
sV\u7247
p2401
F3.585726962600697e-05
sV\u51c6
p2402
F3.858925207370274e-05
sV\u54c8
p2403
F1.195242320866899e-05
sV\u4e4f
p2404
F1.5367401268288701e-06
sV\u63d2
p2405
F6.488458313277452e-06
sV\u7a57
p2406
F1.195242320866899e-06
sV\u905b
p2407
F1.7074890298098557e-07
sV\u8be2
p2408
F1.3659912238478846e-06
sV\u5ea7
p2409
F4.507771038698019e-05
sV\u6267
p2410
F6.1469605073154806e-06
sV\u61e6
p2411
F1.7074890298098557e-07
sV\u586b
p2412
F1.195242320866899e-06
sV\u5dee
p2413
F6.1469605073154806e-06
sV\u5171
p2414
F4.780969283467596e-06
sV\u5473
p2415
F1.0757180887802091e-05
sV\u53f2
p2416
F1.7074890298098557e-07
sV\u56f4
p2417
F1.690414139511757e-05
sV\u6155
p2418
F1.0244934178859135e-06
sV\u607b
p2419
F1.7074890298098557e-07
sV\u62fc
p2420
F4.780969283467596e-06
sV\u7f04
p2421
F1.7074890298098557e-07
sV\u9006
p2422
F3.4149780596197115e-07
sV\u9489
p2423
F4.268722574524639e-06
sV\u9508
p2424
F6.829956119239423e-07
sV\u4f8f
p2425
F5.122467089429567e-07
sV\u8c0e
p2426
F1.195242320866899e-06
sV\u6212
p2427
F1.468440565636476e-05
sV\u8695
p2428
F6.829956119239423e-07
sV\u7b97
p2429
F1.844088152194644e-05
sV\u7816
p2430
F5.122467089429567e-07
sV\u519b
p2431
F8.195947343087308e-06
sV\u5e1a
p2432
F1.5367401268288701e-06
sV\u529d
p2433
F4.268722574524639e-06
sV\u731c
p2434
F5.80546270135351e-06
sV\u779f
p2435
F1.7074890298098557e-07
sV\u541e
p2436
F7.0007050222204085e-06
sV\u8da3
p2437
F1.5367401268288701e-06
sV\u4f24
p2438
F3.773550755879781e-05
sV\u63a7
p2439
F1.7074890298098557e-06
sV\u6026
p2440
F3.4149780596197115e-07
sV\u7b2c
p2441
F9.937586153493361e-05
sV\u74dc
p2442
F9.732687469916178e-06
sV\u7130
p2443
F3.0734802536577403e-06
sV\u55b3
p2444
F2.5612335447147834e-06
sV\u6bb7
p2445
F5.122467089429567e-07
sV\u6cb9
p2446
F1.007418527587815e-05
sV\u6e3a
p2447
F3.4149780596197115e-07
sV\u62bd
p2448
F8.87894295501125e-06
sV\u58c1
p2449
F5.976211604334495e-06
sV\u7ec5
p2450
F6.829956119239423e-07
sV\u54c9
p2451
F1.7074890298098557e-07
sV\u5272
p2452
F4.439471477505625e-06
sV\u6b4c
p2453
F1.2293921014630961e-05
sV\u60d1
p2454
F6.829956119239423e-07
sV\u8150
p2455
F1.7074890298098557e-07
sV\u85d3
p2456
F8.537445149049278e-07
sV\u6252
p2457
F8.537445149049278e-07
sV\u6f0f
p2458
F3.4149780596197114e-06
sV\u8038
p2459
F1.7074890298098557e-06
sV\u7cd9
p2460
F8.537445149049278e-07
sV\u9965
p2461
F5.293215992410553e-06
sV\u51db
p2462
F6.829956119239423e-07
sV\u9e5a
p2463
F1.0244934178859135e-06
sV\u535c
p2464
F6.317709410296466e-06
sV\u745e
p2465
F1.7074890298098557e-07
sV\u6ee5
p2466
F1.7074890298098557e-07
sV\u97e6
p2467
F1.3659912238478846e-06
sV\u7aed
p2468
F2.2197357387528123e-06
sV\u6413
p2469
F6.829956119239423e-07
sV\u5170
p2470
F3.7564758655816825e-06
sV\u55f3
p2471
F1.7074890298098557e-07
sV\u7272
p2472
F3.927224768562668e-06
sV\u9774
p2473
F5.293215992410553e-06
sV\u8bf7
p2474
F4.319947245418935e-05
sV\u6876
p2475
F1.348916333549786e-05
sV\u82cd
p2476
F8.195947343087308e-06
sV\u6d78
p2477
F1.0244934178859135e-06
sV\u62fd
p2478
F1.8782379327908412e-06
sV\u7801
p2479
F8.537445149049278e-07
sV\u7980
p2480
F1.0244934178859135e-06
sV\u9a82
p2481
F3.927224768562668e-06
sV\u5e05
p2482
F1.0244934178859135e-06
sV\u9f84
p2483
F3.4149780596197115e-07
sV\u5409
p2484
F1.5367401268288701e-06
sV\u4f0f
p2485
F1.3659912238478846e-06
sV\u8513
p2486
F5.122467089429567e-07
sV\u8292
p2487
F1.3659912238478846e-06
sV\u521d
p2488
F4.268722574524639e-06
sV\u571f
p2489
F7.68370063414435e-06
sV\u6821
p2490
F3.4149780596197115e-07
sV\u8d23
p2491
F3.0734802536577403e-06
sV\u4e25
p2492
F4.097973671543654e-06
sV\u60a6
p2493
F2.731982447695769e-06
sV\u592b
p2494
F0.00010552282204224909
sV\u5f2f
p2495
F4.097973671543654e-06
sV\u7cae
p2496
F3.7564758655816825e-06
sV\u51b0
p2497
F2.731982447695769e-06
sV\u7533
p2498
F8.537445149049278e-07
sV\u52b2
p2499
F1.4172158947421803e-05
sV\u9635
p2500
F1.2806167723573918e-05
sV\u771f
p2501
F7.120229254307099e-05
sV\u4eba
p2502
F0.0005662033622849482
sV\u79c0
p2503
F1.8782379327908412e-06
sV\u9e45
p2504
F1.7928634813003486e-05
sV\u5347
p2505
F8.195947343087308e-06
sV\u76ca
p2506
F5.122467089429567e-07
sV\u4f4f
p2507
F8.537445149049279e-05
sV\u62d2
p2508
F3.244229156638726e-06
sV\u6655
p2509
F1.5367401268288701e-06
sV\u67d4
p2510
F3.244229156638726e-06
sV\u5b57
p2511
F1.5538150171269685e-05
sV\u575f
p2512
F4.268722574524639e-06
sV\u8861
p2513
F1.7074890298098557e-07
sV\u7fe0
p2514
F5.122467089429567e-07
sV\u6367
p2515
F3.4149780596197115e-07
sV\u60e6
p2516
F5.122467089429567e-07
sV\u6469
p2517
F1.7074890298098557e-07
sV\u65e8
p2518
F1.8782379327908412e-06
sV\u9a6d
p2519
F1.7074890298098557e-07
sV\u9573
p2520
F1.7074890298098557e-07
sV\u9675
p2521
F1.7074890298098557e-07
sV\u507f
p2522
F2.048986835771827e-06
sV\u6c79
p2523
F1.3659912238478846e-06
sV\u6bd5
p2524
F3.7564758655816825e-06
sV\u677f
p2525
F1.1781674305688004e-05
sV\u5b81
p2526
F7.171453925201394e-06
sV\u7a00
p2527
F1.5367401268288701e-06
sV\u5c04
p2528
F9.903436372897164e-06
sV\u5306
p2529
F8.87894295501125e-06
sV\u5608
p2530
F3.4149780596197115e-07
sV\u4f0e
p2531
F3.4149780596197115e-07
sV\u6210
p2532
F8.981392296799842e-05
sV\u8693
p2533
F1.7074890298098557e-07
sV\u9897
p2534
F1.1098678693764063e-05
sV\u9f99
p2535
F1.5538150171269685e-05
sV\u5e18
p2536
F5.122467089429567e-07
sV\u529b
p2537
F3.6369516334949924e-05
sV\u7f00
p2538
F1.0244934178859135e-06
sV\u949f
p2539
F1.1269427596745048e-05
sV\u971e
p2540
F3.4149780596197115e-07
sV\u8ba1
p2541
F1.5708899074250673e-05
sV\u8fdd
p2542
F1.195242320866899e-06
sV\u5230
p2543
F0.0006835078586328853
sV\u55b5
p2544
F6.829956119239423e-07
sV\u7434
p2545
F8.708194052030264e-06
sV\u8fb9
p2546
F0.00011849973866880398
sV\u6e38
p2547
F1.690414139511757e-05
sV\u8d3a
p2548
F6.829956119239423e-07
sV\u907f
p2549
F1.195242320866899e-06
sV\u7ec3
p2550
F6.829956119239423e-07
sV\u5942
p2551
F1.7074890298098557e-07
sV\u9648
p2552
F1.195242320866899e-06
sV\u554a
p2553
F6.027436275228791e-05
sV\u684c
p2554
F3.380828279023514e-05
sV\u4f4e
p2555
F6.1469605073154806e-06
sV\u6454
p2556
F6.1469605073154806e-06
sV\u7b56
p2557
F2.390484641733798e-06
sV\u5fd9
p2558
F2.8685815700805577e-05
sV\u51dd
p2559
F1.195242320866899e-06
sV\u505c
p2560
F3.039330473061543e-05
sV\u54df
p2561
F4.61022038048661e-06
sV\u975e
p2562
F5.259066211814356e-05
sV\u8be1
p2563
F1.195242320866899e-06
sV\u4ee3
p2564
F4.268722574524639e-06
sV\u8eba
p2565
F3.6540265237930915e-05
sV\u6c64
p2566
F1.2976916626554904e-05
sV\u60e7
p2567
F4.61022038048661e-06
sV\u5f84
p2568
F5.122467089429567e-06
sV\u523d
p2569
F8.537445149049278e-07
sV\u786c
p2570
F5.293215992410553e-06
sV\u7f6e
p2571
F4.097973671543654e-06
sV\u55f5
p2572
F5.122467089429567e-07
sV\u9885
p2573
F1.7074890298098557e-07
sV\u8ff9
p2574
F3.244229156638726e-06
sV\u607c
p2575
F5.122467089429567e-06
sV\u677e
p2576
F7.0007050222204085e-06
sV\u5e03
p2577
F2.0319119454737283e-05
sV\u5982
p2578
F0.00011030379132571668
sV\u5386
p2579
F3.927224768562668e-06
sV\u9709
p2580
F3.585726962600697e-06
sV\u558a
p2581
F3.363753388725416e-05
sV\u690d
p2582
F5.122467089429567e-07
sV\u6d43
p2583
F1.7074890298098557e-07
sV\u6f8e
p2584
F3.4149780596197115e-07
sV\u6311
p2585
F3.927224768562668e-06
sV\u6613
p2586
F9.049691857992235e-06
sV\u5e45
p2587
F5.122467089429567e-07
sV\u521b
p2588
F1.8782379327908412e-06
sV\u541f
p2589
F1.195242320866899e-06
sV\u6b21
p2590
F6.488458313277451e-05
sV\u6e23
p2591
F8.537445149049278e-07
sV\u6d25
p2592
F1.8782379327908412e-06
sV'
p2593
F2.2538855193490097e-05
sV\u549d
p2594
F5.122467089429567e-07
sV\u80c6
p2595
F6.488458313277452e-06
sV\u592d
p2596
F6.829956119239423e-07
sV\u5fae
p2597
F3.4149780596197114e-06
sV\u9633
p2598
F2.083136616368024e-05
sV\u51b2
p2599
F1.65626435891556e-05
sV\u7535
p2600
F1.195242320866899e-06
sV\u6837
p2601
F0.00018850678889100806
sV\u8bb6
p2602
F4.951718186448582e-06
sV\u60bc
p2603
F8.537445149049278e-07
sV\u7a74
p2604
F2.731982447695769e-06
sV\u9b41
p2605
F1.195242320866899e-06
sV\u56ca
p2606
F3.7564758655816825e-06
sV\u9047
p2607
F1.963612384281334e-05
sV\u9f20
p2608
F1.161092540270702e-05
sV\u76c8
p2609
F3.4149780596197115e-07
sV\u75ca
p2610
F3.4149780596197115e-07
sV\u8fce
p2611
F8.537445149049278e-06
sV\u62d0
p2612
F3.927224768562668e-06
sV\u6653
p2613
F2.731982447695769e-06
sV\u61d2
p2614
F8.195947343087308e-06
sV\u9ed8
p2615
F5.976211604334495e-06
sV\u725b
p2616
F4.2516476842265405e-05
sV\u745f
p2617
F5.976211604334495e-06
sV\u796d
p2618
F2.048986835771827e-06
sV\u5e7c
p2619
F6.829956119239423e-07
sV\u5371
p2620
F5.122467089429567e-06
sV\u72f0
p2621
F1.7074890298098557e-07
sV\u8877
p2622
F8.537445149049278e-07
sV\u8328
p2623
F2.390484641733798e-06
sV\u9177
p2624
F2.048986835771827e-06
sV\u8dfa
p2625
F3.4149780596197115e-07
sV\u4e22
p2626
F6.829956119239423e-06
sV\u87fe
p2627
F2.390484641733798e-06
sV\u7a81
p2628
F1.9977621648775312e-05
sV\u5802
p2629
F3.039330473061543e-05
sV\u7206
p2630
F5.122467089429567e-07
sV\u5708
p2631
F1.0757180887802091e-05
sV\u6b8b
p2632
F3.7564758655816825e-06
sV\u540a
p2633
F5.634713798372524e-06
sV\u888d
p2634
F8.537445149049278e-07
sV\u4e0e
p2635
F1.8611630424927426e-05
sV\u6291
p2636
F1.7074890298098557e-07
sV\u6012
p2637
F1.0757180887802091e-05
sV\u6495
p2638
F3.927224768562668e-06
sV\u8dd8
p2639
F3.4149780596197115e-07
sV\u7f18
p2640
F1.195242320866899e-06
sV\u739b
p2641
F1.161092540270702e-05
sV\u5c1a
p2642
F3.4149780596197115e-07
sV\u6b20
p2643
F6.829956119239423e-07
sV\u8fa3
p2644
F6.829956119239423e-07
sV\u8822
p2645
F4.780969283467596e-06
sV\u6ca5
p2646
F1.0244934178859135e-06
sV\u5730
p2647
F0.0004162858254676428
sV\u6728
p2648
F2.6124582156090792e-05
sV\u5bab
p2649
F5.856687372247805e-05
sV\u5e2e
p2650
F3.517427401408303e-05
sV\u4f38
p2651
F1.77578859100225e-05
sV\u814c
p2652
F3.4149780596197115e-07
sV\u663e
p2653
F4.951718186448582e-06
sV\u5ac1
p2654
F1.161092540270702e-05
sV\u5fc3
p2655
F0.00016733392492136587
sV\u91c7
p2656
F6.829956119239423e-06
sV\u670d
p2657
F4.8663437349580886e-05
sV\u544a
p2658
F7.188528815499492e-05
sV\u68cd
p2659
F1.3318414432516874e-05
sV\u4e4e
p2660
F1.4855154559345744e-05
sV\u8350
p2661
F3.4149780596197115e-07
sV\u67d3
p2662
F5.122467089429567e-07
sV\u6052
p2663
F3.4149780596197115e-07
sV\u7ed9
p2664
F0.00023717022624058896
sV\u53db
p2665
F1.7074890298098557e-07
sV\u515c
p2666
F8.537445149049278e-07
sV\u765e
p2667
F1.7074890298098557e-06
sV\u6ce5
p2668
F4.61022038048661e-06
sV\u8d64
p2669
F3.4149780596197115e-07
sV\u6768
p2670
F5.122467089429567e-07
sV\u72f1
p2671
F5.80546270135351e-06
sV\u5370
p2672
F8.537445149049278e-07
sV\u97f3
p2673
F2.544158654416685e-05
sV\u9a81
p2674
F1.7074890298098557e-07
sV\u55e8
p2675
F4.097973671543654e-06
sV\u80fd
p2676
F0.0001669924271154039
sV\u867e
p2677
F3.4149780596197115e-07
sV\u5a01
p2678
F4.097973671543654e-06
sV\u7b80
p2679
F7.0007050222204085e-06
sV\u5f03
p2680
F6.829956119239423e-06
sV\u9882
p2681
F1.7074890298098557e-07
sV\u900d
p2682
F3.4149780596197115e-07
sV\u4e8e
p2683
F0.0001646019424736701
sV\u6211
p2684
F0.0009210195826794362
sV\u6390
p2685
F8.537445149049278e-07
sV\u7a96
p2686
F9.22044076097322e-06
sV\u5f98
p2687
F5.122467089429567e-07
sV\u731b
p2688
F1.0757180887802091e-05
sV\u901d
p2689
F1.195242320866899e-06
sV\u519c
p2690
F5.463964895391538e-05
sV\u751f
p2691
F0.00012959841736256804
sV\u6a21
p2692
F6.829956119239423e-06
sV\u68a2
p2693
F2.048986835771827e-06
sV\u6da4
p2694
F1.7074890298098557e-07
sV\u6127
p2695
F1.195242320866899e-06
sV\u82a6
p2696
F3.4149780596197115e-07
sV\u7d2f
p2697
F1.2293921014630961e-05
sV\u7231
p2698
F7.034854802816606e-05
sV\u73b0
p2699
F0.00012840317504170116
sV\u50b2
p2700
F4.268722574524639e-06
sV\u5435
p2701
F5.80546270135351e-06
sV\u4e39
p2702
F5.634713798372524e-06
sV\u803d
p2703
F3.4149780596197115e-07
sV\u653f
p2704
F1.7074890298098557e-07
sV\u5c45
p2705
F6.317709410296466e-06
sV\u9662
p2706
F1.2635418820592933e-05
sV\u884d
p2707
F1.7074890298098557e-07
sV\u69cc
p2708
F3.4149780596197115e-07
sV\u8d4f
p2709
F6.659207216258437e-06
sV\u4ece
p2710
F0.00016784617163030882
sV\u6251
p2711
F7.854449537125336e-06
sV\u63d0
p2712
F2.544158654416685e-05
sV\u57a2
p2713
F3.4149780596197115e-07
sV\u5957
p2714
F1.8611630424927426e-05
sV\u7ad6
p2715
F2.902731350676755e-06
sV\u7fd8
p2716
F6.829956119239423e-07
sV\u56de
p2717
F0.0002779792140530445
sV\u6a61
p2718
F3.585726962600697e-06
sV\u4f63
p2719
F2.5612335447147834e-06
sV\u7efa
p2720
F3.4149780596197115e-07
sV\u8de4
p2721
F3.4149780596197115e-07
sV\u6167
p2722
F1.7074890298098557e-06
sV\u82e6
p2723
F2.697832667099572e-05
sV\u53f0
p2724
F6.488458313277452e-06
sV\u5475
p2725
F3.4149780596197114e-06
sV\u95f4
p2726
F8.40084602666449e-05
sV\u8f69
p2727
F1.7074890298098557e-07
sV\u637b
p2728
F3.4149780596197115e-07
sV\u81fc
p2729
F1.195242320866899e-06
sV\u66fe
p2730
F1.1098678693764063e-05
sV\u5883
p2731
F2.5612335447147834e-06
sV\u5f02
p2732
F5.634713798372524e-06
sV\u5b85
p2733
F5.122467089429567e-07
sV\u7687
p2734
F1.4855154559345744e-05
sV\u5189
p2735
F1.0244934178859135e-06
sV\u6e56
p2736
F8.025198440106322e-06
sV\u4f8d
p2737
F1.468440565636476e-05
sV\u6591
p2738
F1.7074890298098557e-06
sV\u6410
p2739
F3.4149780596197115e-07
sV\u8093
p2740
F6.829956119239423e-07
sV\u8214
p2741
F1.7074890298098557e-06
sV\u5e97
p2742
F2.8002820088881634e-05
sV\u5d16
p2743
F1.7074890298098557e-06
sV\u9999
p2744
F8.025198440106322e-06
sV\u549b
p2745
F3.4149780596197115e-07
sV\u529f
p2746
F3.927224768562668e-06
sV\u8ba5
p2747
F6.829956119239423e-07
sV\u6028
p2748
F3.0734802536577403e-06
sV\u632a
p2749
F1.195242320866899e-06
sV\u9e2c
p2750
F1.0244934178859135e-06
sV\u592e
p2751
F4.61022038048661e-06
sV\u9732
p2752
F1.1098678693764063e-05
sV\u6838
p2753
F3.0734802536577403e-06
sV\u6b3a
p2754
F2.5612335447147834e-06
sV\u663c
p2755
F6.829956119239423e-07
sV\u813e
p2756
F8.537445149049278e-07
sV\u5c40
p2757
F8.537445149049278e-07
sV\u96c7
p2758
F1.8782379327908412e-06
sV\u5546
p2759
F1.3830661141459831e-05
sV\u51c9
p2760
F4.951718186448582e-06
sV\u534a
p2761
F2.390484641733798e-05
sV\u4e4c
p2762
F1.1781674305688004e-05
sV\u6254
p2763
F2.424634422329995e-05
sV\u90b8
p2764
F6.829956119239423e-07
sV\u5858
p2765
F6.829956119239423e-06
sV\u94db
p2766
F6.829956119239423e-07
sV\uff0e
p2767
F1.7074890298098557e-07
sV\u565c
p2768
F5.122467089429567e-07
sV\u52df
p2769
F1.7074890298098557e-07
sV\u715e
p2770
F1.7074890298098557e-07
sV\u6de1
p2771
F1.195242320866899e-06
sV\u6c60
p2772
F8.366696246068294e-06
sV\u63ba
p2773
F1.7074890298098557e-07
sV\u8be5
p2774
F4.524845928996118e-05
sV\u6068
p2775
F3.244229156638726e-06
sV\u9ad8
p2776
F7.44465216997097e-05
sV\u7aef
p2777
F1.4172158947421803e-05
sV\u996e
p2778
F8.537445149049278e-07
sV\u7470
p2779
F8.708194052030264e-06
sV\u7c41
p2780
F3.4149780596197115e-07
sV\u9274
p2781
F1.7074890298098557e-07
sV\u4ef7
p2782
F6.488458313277452e-06
sV\u8d76
p2783
F5.856687372247805e-05
sV\u62ff
p2784
F6.74458166774893e-05
sV\u817e
p2785
F4.268722574524639e-06
sV\u9a84
p2786
F1.3659912238478846e-06
sV\u54c0
p2787
F8.87894295501125e-06
sV\u7109
p2788
F1.7074890298098557e-07
sV\u5956
p2789
F2.731982447695769e-06
sV\u8c0b
p2790
F3.4149780596197114e-06
sV\u4f0d
p2791
F2.048986835771827e-06
sV\u4e8c
p2792
F8.776493613222658e-05
sV\u8511
p2793
F8.537445149049278e-07
sV\u603b
p2794
F2.8173568991862618e-05
sV\u9898
p2795
F5.80546270135351e-06
sV\u541b
p2796
F1.5367401268288701e-06
sV\u5b9a
p2797
F7.120229254307099e-05
sV\u969c
p2798
F1.7074890298098557e-07
sV\u8d21
p2799
F1.7074890298098557e-07
sV\u8770
p2800
F6.829956119239423e-07
sV\u60a8
p2801
F2.5100088738204878e-05
sV\u71ac
p2802
F1.7074890298098557e-06
sV\u63aa
p2803
F1.195242320866899e-06
sV\u7f2d
p2804
F3.4149780596197115e-07
sV\u5531
p2805
F2.3392599708395024e-05
sV\u8bba
p2806
F1.0927929790783077e-05
sV\u623f
p2807
F7.70077552444245e-05
sV\u61be
p2808
F8.537445149049278e-07
sV\u5ba1
p2809
F2.5612335447147834e-06
sV\u5bdf
p2810
F3.4149780596197114e-06
sV\u8df7
p2811
F1.7074890298098557e-07
sV\u5149
p2812
F5.1736917603238626e-05
sV\u70c8
p2813
F3.585726962600697e-06
sV\u73ca
p2814
F1.7074890298098557e-07
sV\u4f4d
p2815
F7.154379034903295e-05
sV\u6551
p2816
F2.475859093224291e-05
sV\u6355
p2817
F3.7564758655816825e-06
sV\u62d4
p2818
F1.2123172111649975e-05
sV\u98d8
p2819
F3.4149780596197114e-06
sV\u545b
p2820
F3.4149780596197115e-07
sV\u71ce
p2821
F1.7074890298098557e-07
sV\u575d
p2822
F8.537445149049278e-07
sV\u6f20
p2823
F5.122467089429567e-07
sV\u6863
p2824
F3.4149780596197115e-07
sV\u63b7
p2825
F1.7074890298098557e-07
sV\u6b65
p2826
F1.8270132618965458e-05
sV\u65e6
p2827
F3.927224768562668e-06
sV\u60e8
p2828
F4.097973671543654e-06
sV\u63ea
p2829
F1.0244934178859135e-06
sV\u9a6f
p2830
F5.122467089429567e-07
sV\u4e2a
p2831
F0.0005911327021201721
sV\u5375
p2832
F3.4149780596197115e-07
sV\u6628
p2833
F4.439471477505625e-06
sV\u8bfa
p2834
F5.80546270135351e-06
sV\u66fc
p2835
F2.390484641733798e-06
sV\u627f
p2836
F8.87894295501125e-06
sV\u5c81
p2837
F7.171453925201394e-06
sV\u5983
p2838
F8.537445149049278e-07
sV\u5e02
p2839
F8.195947343087308e-06
sV\u7406
p2840
F1.7587137007041515e-05
sV\u7089
p2841
F1.7416388104060527e-05
sV\u680e
p2842
F3.4149780596197115e-07
sV\u6491
p2843
F1.7074890298098557e-06
sV\u6295
p2844
F4.097973671543654e-06
sV\u5f97
p2845
F0.0003222031799251198
sV\u5c16
p2846
F9.391189663954207e-06
sV\u5899
p2847
F1.1781674305688004e-05
sV\u971c
p2848
F5.122467089429567e-07
sV\u539f
p2849
F2.8002820088881634e-05
sV\u901e
p2850
F6.829956119239423e-07
sV\u6ca1
p2851
F0.00021924159142758546
sV\u8e22
p2852
F2.5612335447147834e-06
sV\u80a9
p2853
F9.732687469916178e-06
sV\u822a
p2854
F1.8782379327908412e-06
sV\u5ead
p2855
F3.7564758655816825e-06
sV\u94b1
p2856
F5.08831730883337e-05
sV\u7530
p2857
F9.049691857992235e-06
sV\u51b3
p2858
F1.622114578319363e-05
sV\u9632
p2859
F1.8782379327908412e-06
sV\u7334
p2860
F8.537445149049278e-07
sV\u75b5
p2861
F1.7074890298098557e-07
sV\u79c3
p2862
F5.122467089429567e-07
sV\u9ac5
p2863
F8.537445149049278e-07
sV\u9b44
p2864
F5.122467089429567e-07
sV\u5446
p2865
F1.8611630424927426e-05
sV\u5148
p2866
F4.080898781245555e-05
sV\u6dcb
p2867
F1.8782379327908412e-06
sV\u524a
p2868
F1.0244934178859135e-06
sV\u4ecd
p2869
F2.1002115066661226e-05
sV\u6bcf
p2870
F4.780969283467596e-05
sV\u6652
p2871
F1.7074890298098557e-06
sV\u5fd7
p2872
F8.537445149049278e-07
sV\u75db
p2873
F2.1002115066661226e-05
sV\u5a5a
p2874
F3.7564758655816826e-05
sV\u5f20
p2875
F2.475859093224291e-05
sV\u6ce1
p2876
F1.195242320866899e-06
sV\u8d60
p2877
F6.829956119239423e-07
sV\u89e3
p2878
F2.0319119454737283e-05
sV\u6b64
p2879
F5.754238030459214e-05
sV\u60e9
p2880
F5.122467089429567e-06
sV\u6168
p2881
F5.122467089429567e-07
sV\u5deb
p2882
F3.9101498782645697e-05
sV\u7eed
p2883
F2.0489868357718267e-05
sV\u5f6c
p2884
F6.829956119239423e-07
sV\u786e
p2885
F1.1781674305688004e-05
sV\u9570
p2886
F2.048986835771827e-06
sV\u51f3
p2887
F6.317709410296466e-06
sV\u5374
p2888
F7.820299756529139e-05
sV\u8ff7
p2889
F7.68370063414435e-06
sV\u88f9
p2890
F2.048986835771827e-06
sV\u8015
p2891
F8.537445149049278e-07
sV\u5c01
p2892
F3.7564758655816825e-06
sV\u6bc1
p2893
F1.7074890298098557e-06
sV\u56d4
p2894
F5.122467089429567e-07
sV\u9707
p2895
F2.731982447695769e-06
sV\u5486
p2896
F1.8782379327908412e-06
sV\u9009
p2897
F5.463964895391538e-06
sV\u6d0b
p2898
F3.585726962600697e-06
sV\u728a
p2899
F1.0244934178859135e-06
sV\u4e0d
p2900
F0.0007514659220193175
sV\u626f
p2901
F4.61022038048661e-06
sV\u5f17
p2902
F8.366696246068294e-06
sV\u5a9a
p2903
F8.537445149049278e-07
sV\u6ea2
p2904
F1.0244934178859135e-06
sV\u8ba4
p2905
F2.851506679782459e-05
sV\u5cf0
p2906
F5.122467089429567e-07
sV\u81a8
p2907
F1.7074890298098557e-07
sV\u7d2b
p2908
F1.3659912238478846e-06
sV\u82aa
p2909
F1.7074890298098557e-07
sV\u5e2d
p2910
F2.048986835771827e-06
sV\u5431
p2911
F3.585726962600697e-06
sV\u7235
p2912
F9.561938566935192e-06
sV\u6839
p2913
F5.0200177476409756e-05
sV\u653b
p2914
F1.0244934178859135e-06
sV\u6eba
p2915
F1.7074890298098557e-07
sV\u5c41
p2916
F8.537445149049278e-07
sV\u5747
p2917
F1.195242320866899e-06
sV\u54c6
p2918
F6.829956119239423e-07
sV\u8d4b
p2919
F3.4149780596197115e-07
sV\u884c
p2920
F6.129885617017381e-05
sV\u9e7f
p2921
F1.8953128230889397e-05
sV\u7f57
p2922
F4.951718186448582e-06
sV\u7cd6
p2923
F1.0244934178859135e-06
sV\u79d8
p2924
F2.5612335447147834e-06
sV\u8c61
p2925
F4.61022038048661e-06
sV\u73d1
p2926
F1.7074890298098557e-07
sV\u6963
p2927
F1.7074890298098557e-07
sV\u84e6
p2928
F1.7074890298098557e-07
sV\u6069
p2929
F5.463964895391538e-06
sV\u58ee
p2930
F7.68370063414435e-06
sV\u5471
p2931
F6.829956119239423e-06
sV\u95f0
p2932
F1.7074890298098557e-07
sV\u5173
p2933
F1.9123877133870385e-05
sV\u76f2
p2934
F5.122467089429567e-07
sV\u7275
p2935
F9.22044076097322e-06
sV\u5a7f
p2936
F1.5367401268288701e-06
sV\u867d
p2937
F7.171453925201394e-06
sV\u5f81
p2938
F1.5367401268288701e-06
sV\u7a83
p2939
F1.7074890298098557e-06
sV\u5706
p2940
F5.463964895391538e-06
sV\u7389
p2941
F1.5367401268288701e-06
sV\u4e8b
p2942
F9.476564115444699e-05
sV\u6293
p2943
F3.278378937234923e-05
sV\u6512
p2944
F5.122467089429567e-07
sV\u6014
p2945
F1.7074890298098557e-07
sV\u5c97
p2946
F1.0244934178859135e-06
sV\u7f16
p2947
F3.244229156638726e-06
sV\u5a18
p2948
F0.00011986572989265187
sV\u591a
p2949
F0.0001125235270644695
sV\u559d
p2950
F4.217497903630344e-05
sV\u82db
p2951
F5.122467089429567e-07
sV\u6fa1
p2952
F1.8782379327908412e-06
sV\u6e20
p2953
F1.7074890298098557e-07
sV\u8d22
p2954
F2.544158654416685e-05
sV\u5750
p2955
F8.52037025875118e-05
sV\u63a9
p2956
F1.0244934178859135e-06
sV\u7eab
p2957
F1.7074890298098557e-07
sV\u54c1
p2958
F3.7564758655816825e-06
sV\u52b3
p2959
F8.708194052030264e-06
sV\u7532
p2960
F3.7564758655816825e-06
sV\u51b5
p2961
F5.463964895391538e-06
sV\u4f36
p2962
F2.048986835771827e-06
sV\u65bd
p2963
F7.68370063414435e-06
sV\u80bf
p2964
F8.537445149049278e-07
sV\u7fc1
p2965
F3.244229156638726e-06
sV\u6be1
p2966
F1.7074890298098557e-07
sV\u6346
p2967
F5.976211604334495e-06
sV\u54c7
p2968
F3.0734802536577403e-06
sV\u53c9
p2969
F3.244229156638726e-06
sV\u7248
p2970
F3.4149780596197115e-07
sV\u4ecb
p2971
F8.537445149049278e-07
sV\u6eb6
p2972
F6.829956119239423e-07
sV\u8c4c
p2973
F2.048986835771827e-06
sV\u8650
p2974
F6.829956119239423e-07
sV\u7bd9
p2975
F6.829956119239423e-07
sV\u76db
p2976
F9.22044076097322e-06
sV\u545c
p2977
F1.7074890298098557e-06
sV\u70df
p2978
F7.854449537125336e-06
sV\u4fe1
p2979
F2.731982447695769e-05
sV\u4e60
p2980
F3.4149780596197114e-06
sV\u8d62
p2981
F2.902731350676755e-06
sV\u50e7
p2982
F3.4149780596197115e-07
sV\u83e9
p2983
F1.0244934178859135e-06
sV\u8934
p2984
F6.829956119239423e-07
sV\u6668
p2985
F1.4513656753383774e-05
sV\uff01
p2986
F0.00026722203316524243
sV\u5a03
p2987
F4.097973671543654e-06
sV\u756a
p2988
F3.927224768562668e-06
sV\u9884
p2989
F2.902731350676755e-06
sV\u5288
p2990
F4.780969283467596e-06
sV\u4e0b
p2991
F0.000319641946380405
sV\u718a
p2992
F2.5100088738204878e-05
sV\u8c8c
p2993
F1.041568308184012e-05
sV\u680f
p2994
F2.390484641733798e-06
sV\u6115
p2995
F6.829956119239423e-07
sV\u9669
p2996
F8.708194052030264e-06
sV\u88d5
p2997
F1.0244934178859135e-06
sV\u7a98
p2998
F3.4149780596197115e-07
sV\u561b
p2999
F8.708194052030264e-06
sV\u6f6e
p3000
F6.829956119239423e-07
sV\u901f
p3001
F6.829956119239423e-06
sV\u8925
p3002
F6.829956119239423e-07
sV\u8427
p3003
F1.7074890298098557e-07
sV\u6270
p3004
F1.5367401268288701e-06
sV\u76c6
p3005
F4.780969283467596e-06
sV\u5d2d
p3006
F1.0244934178859135e-06
sV\u75b2
p3007
F5.293215992410553e-06
sV\u8c37
p3008
F8.195947343087308e-06
sV\u64bc
p3009
F1.7074890298098557e-07
sV\u803f
p3010
F3.4149780596197114e-06
sV\u61ca
p3011
F8.537445149049278e-07
sV\u72c8
p3012
F1.7074890298098557e-07
sV\u8e4b
p3013
F1.7074890298098557e-07
sV\u91ca
p3014
F2.731982447695769e-06
sV\u8dcc
p3015
F3.4149780596197114e-06
sV\u6751
p3016
F1.2123172111649975e-05
sV\u6253
p3017
F0.00011406026719129836
sV\u8155
p3018
F3.4149780596197115e-07
sV\u5fd6
p3019
F1.7074890298098557e-07
sV\u5b59
p3020
F5.122467089429567e-07
sV\u62a5
p3021
F1.8782379327908413e-05
sV\u965b
p3022
F3.0734802536577403e-06
sV\u94dc
p3023
F2.731982447695769e-06
sV\u88e4
p3024
F1.0244934178859135e-06
sV\u6467
p3025
F5.122467089429567e-07
sV\u62e8
p3026
F1.5367401268288701e-06
sV\u81ea
p3027
F0.00018953128230889398
sV\u7bee
p3028
F8.537445149049278e-06
sV\u56f0
p3029
F8.025198440106322e-06
sV\u95f2
p3030
F3.585726962600697e-06
sV\u5175
p3031
F4.234572793928442e-05
sV\u6b79
p3032
F1.0244934178859135e-06
sV\u607f
p3033
F3.4149780596197115e-07
sV\u94a9
p3034
F1.0244934178859135e-06
sV\u5f00
p3035
F0.0001598209731902025
sV\u5b83
p3036
F0.0002105333973755552
sV\u5885
p3037
F1.3659912238478846e-06
sV\u5904
p3038
F4.798044173765695e-05
sV\u5587
p3039
F1.7074890298098557e-07
sV\u5308
p3040
F3.4149780596197115e-07
sV\u4f8b
p3041
F8.537445149049278e-07
sV\u300a
p3042
F1.8782379327908412e-06
sV\u6691
p3043
F1.7074890298098557e-07
sV\u8393
p3044
F2.048986835771827e-06
sV\u7f0e
p3045
F3.4149780596197115e-07
sV\u9a97
p3046
F8.025198440106322e-06
sV\u579b
p3047
F1.8782379327908412e-06
sV\u949d
p3048
F1.7074890298098557e-07
sV\u751c
p3049
F6.1469605073154806e-06
sV\u719f
p3050
F8.708194052030264e-06
sV\u4ea1
p3051
F1.195242320866899e-06
sV\u4f20
p3052
F1.2635418820592933e-05
sV\u8c22
p3053
F1.3830661141459831e-05
sV\u65a7
p3054
F1.0757180887802091e-05
sV\u6328
p3055
F9.903436372897164e-06
sV\u602a
p3056
F2.1343612872623198e-05
sV\u5cad
p3057
F1.7074890298098557e-06
sV\u76b1
p3058
F8.537445149049278e-07
sV\u7709
p3059
F4.097973671543654e-06
sV\u853c
p3060
F1.195242320866899e-06
sV\u5c42
p3061
F3.244229156638726e-06
sV\u78c5
p3062
F5.122467089429567e-07
sV\u5944
p3063
F1.0244934178859135e-06
sV\u75c7
p3064
F1.7074890298098557e-07
sV\u9646
p3065
F8.537445149049278e-07
sV\u52c9
p3066
F1.7074890298098557e-07
sV\u5348
p3067
F1.195242320866899e-05
sV\u8d4c
p3068
F7.34220282818238e-06
sV\u6750
p3069
F5.976211604334495e-06
sV\u9a76
p3070
F2.2197357387528123e-06
sV\u60d5
p3071
F3.4149780596197115e-07
sV\u8154
p3072
F6.829956119239423e-07
sV\u7ad9
p3073
F5.241991321516257e-05
sV\u5b58
p3074
F3.244229156638726e-06
sV\u77db
p3075
F3.585726962600697e-06
sV\u54dd
p3076
F8.537445149049278e-07
sV\u755c
p3077
F1.0244934178859135e-06
sV\u5eca
p3078
F5.122467089429567e-07
sV\u6ee1
p3079
F7.086079473710902e-05
sV\u4f60
p3080
F0.0006606275056334331
sV\u8c62
p3081
F1.7074890298098557e-07
sV\u65e7
p3082
F1.0757180887802091e-05
sV\u62e9
p3083
F1.8782379327908412e-06
sV\u8368
p3084
F2.390484641733798e-06
sV\u5feb
p3085
F0.00010279083959455332
sV\u806a
p3086
F1.2464669917611947e-05
sV\u5ced
p3087
F3.4149780596197115e-07
sV\u79ef
p3088
F1.5367401268288701e-06
sV\u9a6e
p3089
F2.048986835771827e-06
sV\u56f1
p3090
F1.8782379327908412e-06
sV\u5269
p3091
F1.0244934178859134e-05
sV\u53f3
p3092
F9.732687469916178e-06
sV\u5192
p3093
F9.22044076097322e-06
sV\u50f5
p3094
F8.537445149049278e-07
sV\u5174
p3095
F4.507771038698019e-05
sV\u6df7
p3096
F2.390484641733798e-06
sV\u8e76
p3097
F1.7074890298098557e-07
sV\u627e
p3098
F9.322890102761813e-05
sV\u5e01
p3099
F1.6391894686174616e-05
sV\u5f80
p3100
F4.2516476842265405e-05
sV\u9b03
p3101
F8.537445149049278e-07
sV\u5c82
p3102
F1.195242320866899e-06
sV\u5984
p3103
F6.829956119239423e-07
sV\u5507
p3104
F1.0244934178859135e-06
sV\u9686
p3105
F2.731982447695769e-06
sV\u708a
p3106
F1.7074890298098557e-07
sV\u8c0d
p3107
F5.122467089429567e-07
sV\u6d8c
p3108
F2.390484641733798e-06
sV\u5631
p3109
F1.8782379327908412e-06
sV\u54b1
p3110
F1.53674012682887e-05
sV\u6492
p3111
F7.854449537125336e-06
sV\u6015
p3112
F3.585726962600697e-05
sV\u6194
p3113
F5.122467089429567e-07
sV\u5b98
p3114
F9.561938566935192e-06
sV\u541d
p3115
F1.0244934178859135e-06
sV\u559c
p3116
F2.4587842029261922e-05
sV\u529e
p3117
F2.9710309118691488e-05
sV\u6e21
p3118
F6.1469605073154806e-06
sV\u6b23
p3119
F4.439471477505625e-06
sV\u4ee4
p3120
F2.3563348611376008e-05
sV\u63a8
p3121
F1.2464669917611947e-05
sV\u9631
p3122
F1.7074890298098557e-07
sV\u54f2
p3123
F1.7074890298098557e-07
sV\u7948
p3124
F5.976211604334495e-06
sV\u8bb8
p3125
F4.183348123034147e-05
sV\u843d
p3126
F3.824775426774077e-05
sV\u613f
p3127
F5.412740224497243e-05
sV\u7e41
p3128
F5.122467089429567e-07
sV\u64e6
p3129
F6.488458313277452e-06
sV\u8d77
p3130
F0.00024570767138963823
sV\u9547
p3131
F4.61022038048661e-06
sV\u96c6
p3132
F7.34220282818238e-06
sV\u53c8
p3133
F0.0002378532218525129
sV\u90ca
p3134
F5.122467089429567e-07
sV\u6dcc
p3135
F1.3659912238478846e-06
sV\u8651
p3136
F4.780969283467596e-06
sV\u67d0
p3137
F2.5612335447147834e-06
sV\u64d2
p3138
F1.7074890298098557e-07
sV\u6055
p3139
F1.8782379327908412e-06
sV\u8d25
p3140
F2.390484641733798e-06
sV\u575b
p3141
F2.731982447695769e-06
sV\u72de
p3142
F3.4149780596197115e-07
sV\u4e61
p3143
F5.80546270135351e-06
sV\u6b63
p3144
F8.230097123683505e-05
sV\u6ce2
p3145
F2.390484641733798e-06
sV\u6865
p3146
F4.097973671543654e-06
sV\u6027
p3147
F6.1469605073154806e-06
sV\u6269
p3148
F1.7074890298098557e-07
sV\u996f
p3149
F3.4149780596197115e-07
sV\u5373
p3150
F1.6050396880212644e-05
sV\u94f2
p3151
F8.537445149049278e-07
sV\u7075
p3152
F1.161092540270702e-05
sV\u6d77
p3153
F1.9977621648775312e-05
sV\u4ef6
p3154
F4.388246806611329e-05
sV\u6a79
p3155
F1.7074890298098557e-07
sV\u8bf8
p3156
F3.4149780596197115e-07
sV\u68fa
p3157
F5.463964895391538e-06
sV\u817f
p3158
F2.083136616368024e-05
sV\u5b54
p3159
F4.268722574524639e-06
s.