(dp1
S'STXihei'
p2
cnumpy.core.multiarray
_reconstruct
p3
(cnumpy
ndarray
p4
(I0
tS'b'
tRp5
(I1
(I2
tcnumpy
dtype
p6
(S'f8'
I0
I1
tRp7
(I3
S'<'
NNNI-1
I-1
I0
tbI00
S'T\xeb^du\x08\xf6?\xbb\xdb\x9f\xeb\x89\x94\xff?'
tbs.